Archive member included because of file (symbol)

../..//bootloader/binary/drivers/Release/libdrivers.a(gpio_v2.o)
                              Release_MMCSD/bl_platform.o (GPIOModuleReset)
../..//bootloader/binary/drivers/Release/libdrivers.a(hsi2c.o)
                              Release_MMCSD/bl_platform.o (I2CMasterInitExpClk)
../..//bootloader/binary/drivers/Release/libdrivers.a(hs_mmcsd.o)
                              Release_MMCSD/bl_hsmmcsd.o (HSMMCSDIntrStatusEnable)
../..//bootloader/binary/utils/Release/libutils.a(board.o)
                              Release_MMCSD/bl_platform.o (boardName)
../..//bootloader/binary/utils/Release/libutils.a(uartStdio.o)
                              Release_MMCSD/bl_platform.o (UARTStdioInit)
../..//bootloader/binary/utils/Release/libutils.a(ascii.o)
                              ../..//bootloader/binary/utils/Release/libutils.a(uartStdio.o) (ASCIIToDigit)
../..//bootloader/binary/platform/Release/libplatform.a(board.o)
                              ../..//bootloader/binary/utils/Release/libutils.a(board.o) (BoardInfoCheck)
../..//bootloader/binary/platform/Release/libplatform.a(eeprom.o)
                              ../..//bootloader/binary/utils/Release/libutils.a(board.o) (BoardInfoRead)
../..//bootloader/binary/platform/Release/libplatform.a(gpio.o)
                              Release_MMCSD/bl_platform.o (GPIO0ModuleClkConfig)
../..//bootloader/binary/platform/Release/libplatform.a(hsi2c.o)
                              Release_MMCSD/bl_platform.o (I2CPinMuxSetup)
../..//bootloader/binary/platform/Release/libplatform.a(hs_mmcsd.o)
                              Release_MMCSD/bl_platform.o (HSMMCSDPinMuxSetup)
../..//bootloader/binary/platform/Release/libplatform.a(uartConsole.o)
                              ../..//bootloader/binary/utils/Release/libutils.a(uartStdio.o) (UARTConsoleInit)
../..//bootloader/binary/platform/Release/libplatform.a(uart.o)
                              ../..//bootloader/binary/platform/Release/libplatform.a(uartConsole.o) (UARTPinMuxSetup)
../..//bootloader/binary/mmcsdlib/Release/libmmcsd.a(hs_mmcsdlib.o)
                              Release_MMCSD/bl_hsmmcsd.o (HSMMCSDCardPresent)
../..//bootloader/binary/mmcsdlib/Release/libmmcsd.a(mmcsd_proto.o)
                              Release_MMCSD/fat_mmcsd.o (MMCSDBusWidthSet)
/home/jacob/MAACS/gcc-arm-none-eabi-4_7-2012q4/arm-none-eabi/lib//libc.a(lib_a-memcmp.o)
                              Release_MMCSD/ff.o (memcmp)
/home/jacob/MAACS/gcc-arm-none-eabi-4_7-2012q4/arm-none-eabi/lib//libc.a(lib_a-memcpy.o)
                              Release_MMCSD/bl_hsmmcsd.o (memcpy)
/home/jacob/MAACS/gcc-arm-none-eabi-4_7-2012q4/arm-none-eabi/lib//libc.a(lib_a-memset.o)
                              Release_MMCSD/ff.o (memset)
/home/jacob/MAACS/gcc-arm-none-eabi-4_7-2012q4/arm-none-eabi/lib//libc.a(lib_a-strcmp.o)
                              Release_MMCSD/bl_platform.o (strcmp)
/home/jacob/MAACS/gcc-arm-none-eabi-4_7-2012q4/lib/gcc/arm-none-eabi/4.7.3//libgcc.a(_udivsi3.o)
                              (__aeabi_uidiv)
/home/jacob/MAACS/gcc-arm-none-eabi-4_7-2012q4/lib/gcc/arm-none-eabi/4.7.3//libgcc.a(_divsi3.o)
                              (__aeabi_idiv)
/home/jacob/MAACS/gcc-arm-none-eabi-4_7-2012q4/lib/gcc/arm-none-eabi/4.7.3//libgcc.a(_dvmd_tls.o)
                              /home/jacob/MAACS/gcc-arm-none-eabi-4_7-2012q4/lib/gcc/arm-none-eabi/4.7.3//libgcc.a(_udivsi3.o) (__aeabi_idiv0)
../..//bootloader/binary/drivers/Release/libdrivers.a(uart_irda_cir.o)
                              ../..//bootloader/binary/platform/Release/libplatform.a(uartConsole.o) (UARTOperatingModeSelect)

Allocating common symbols
Common symbol       size              file

dataToSlave         0x3               Release_MMCSD/bl_platform.o
sdCard              0x48              Release_MMCSD/bl_hsmmcsd.o
rCount              0x4               Release_MMCSD/bl_platform.o
boardName           0x8               ../..//bootloader/binary/utils/Release/libutils.a(board.o)
numOfBytes          0x4               Release_MMCSD/bl_platform.o
ctrlInfo            0x50              Release_MMCSD/bl_hsmmcsd.o
boardData           0x4               ../..//bootloader/binary/utils/Release/libutils.a(board.o)
tCount              0x4               Release_MMCSD/bl_platform.o
oppMaxIdx           0x4               Release_MMCSD/bl_platform.o
deviceVersion       0x4               Release_MMCSD/bl_platform.o
dataFromSlave       0x2               Release_MMCSD/bl_platform.o
boardVersion        0x5               ../..//bootloader/binary/utils/Release/libutils.a(board.o)
freqMultDDR         0x4               Release_MMCSD/bl_platform.o
fat_devices         0x18              Release_MMCSD/fat_mmcsd.o

Discarded input sections

 .text          0x00000000        0x0 Release_MMCSD/bl_copy.o
 .data          0x00000000        0x0 Release_MMCSD/bl_copy.o
 .bss           0x00000000        0x0 Release_MMCSD/bl_copy.o
 .text          0x00000000        0x0 Release_MMCSD/bl_hsmmcsd.o
 .data          0x00000000        0x0 Release_MMCSD/bl_hsmmcsd.o
 .bss           0x00000000        0x0 Release_MMCSD/bl_hsmmcsd.o
 .data.g_sFresultStrings
                0x00000000       0x70 Release_MMCSD/bl_hsmmcsd.o
 .data.sdBlkSize
                0x00000000        0x4 Release_MMCSD/bl_hsmmcsd.o
 .bss.g_sPState
                0x00000000        0x4 Release_MMCSD/bl_hsmmcsd.o
 .bss.g_sCState
                0x00000000        0x4 Release_MMCSD/bl_hsmmcsd.o
 .data          0x00000000        0x0 Release_MMCSD/bl_init.o
 .bss           0x00000000        0x0 Release_MMCSD/bl_init.o
 .text          0x00000000        0x0 Release_MMCSD/bl_main.o
 .data          0x00000000        0x0 Release_MMCSD/bl_main.o
 .bss           0x00000000        0x0 Release_MMCSD/bl_main.o
 .text.BootAbort
                0x00000000        0x4 Release_MMCSD/bl_main.o
 .bss.DspEntryPoint
                0x00000000        0x4 Release_MMCSD/bl_main.o
 .text          0x00000000        0x0 Release_MMCSD/bl_platform.o
 .data          0x00000000        0x0 Release_MMCSD/bl_platform.o
 .bss           0x00000000        0x0 Release_MMCSD/bl_platform.o
 .data.flag     0x00000000        0x4 Release_MMCSD/bl_platform.o
 .text          0x00000000        0x0 Release_MMCSD/cache.o
 .data          0x00000000        0x0 Release_MMCSD/cache.o
 .bss           0x00000000        0x0 Release_MMCSD/cache.o
 .text.CacheDisable
                0x00000000       0x68 Release_MMCSD/cache.o
 .text.CacheEnable
                0x00000000       0x84 Release_MMCSD/cache.o
 .text.CacheInstInvalidateAll
                0x00000000       0x14 Release_MMCSD/cache.o
 .text.CacheInstInvalidateBuff
                0x00000000       0x14 Release_MMCSD/cache.o
 .text.CacheDataCleanInvalidateAll
                0x00000000       0x14 Release_MMCSD/cache.o
 .text.CacheDataCleanAll
                0x00000000       0x14 Release_MMCSD/cache.o
 .text.CacheDataInvalidateAll
                0x00000000       0x14 Release_MMCSD/cache.o
 .text.CacheDataCleanInvalidateBuff
                0x00000000       0x14 Release_MMCSD/cache.o
 .data          0x00000000        0x0 Release_MMCSD/cp15.o
 .bss           0x00000000        0x0 Release_MMCSD/cp15.o
 .text          0x00000000        0x0 Release_MMCSD/device.o
 .data          0x00000000        0x0 Release_MMCSD/device.o
 .bss           0x00000000        0x0 Release_MMCSD/device.o
 .text          0x00000000        0x0 Release_MMCSD/fat_mmcsd.o
 .data          0x00000000        0x0 Release_MMCSD/fat_mmcsd.o
 .bss           0x00000000        0x0 Release_MMCSD/fat_mmcsd.o
 .text          0x00000000        0x0 Release_MMCSD/ff.o
 .data          0x00000000        0x0 Release_MMCSD/ff.o
 .bss           0x00000000        0x0 Release_MMCSD/ff.o
 .text.get_fileinfo
                0x00000000      0x114 Release_MMCSD/ff.o
 .text.f_write  0x00000000      0x2f4 Release_MMCSD/ff.o
 .text.f_lseek  0x00000000      0x268 Release_MMCSD/ff.o
 .text.f_opendir
                0x00000000       0xf4 Release_MMCSD/ff.o
 .text.f_readdir
                0x00000000       0xdc Release_MMCSD/ff.o
 .text.f_stat   0x00000000       0x90 Release_MMCSD/ff.o
 .text.f_getfree
                0x00000000      0x174 Release_MMCSD/ff.o
 .text.f_unlink
                0x00000000      0x1cc Release_MMCSD/ff.o
 .text.f_mkdir  0x00000000      0x320 Release_MMCSD/ff.o
 .text.f_chmod  0x00000000       0xa8 Release_MMCSD/ff.o
 .text.f_rename
                0x00000000      0x198 Release_MMCSD/ff.o
 .text          0x00000000        0x0 Release_MMCSD/mmu.o
 .data          0x00000000        0x0 Release_MMCSD/mmu.o
 .bss           0x00000000        0x0 Release_MMCSD/mmu.o
 .text.MMUInit  0x00000000       0x54 Release_MMCSD/mmu.o
 .text.MMUMemRegionMap
                0x00000000       0x74 Release_MMCSD/mmu.o
 .text.MMUEnable
                0x00000000       0x20 Release_MMCSD/mmu.o
 .debug_info    0x00000000      0x1aa Release_MMCSD/mmu.o
 .debug_abbrev  0x00000000       0xee Release_MMCSD/mmu.o
 .debug_loc     0x00000000      0x10b Release_MMCSD/mmu.o
 .debug_aranges
                0x00000000       0x30 Release_MMCSD/mmu.o
 .debug_ranges  0x00000000       0x20 Release_MMCSD/mmu.o
 .debug_line    0x00000000       0xef Release_MMCSD/mmu.o
 .debug_str     0x00000000      0x128 Release_MMCSD/mmu.o
 .comment       0x00000000       0x71 Release_MMCSD/mmu.o
 .ARM.attributes
                0x00000000       0x37 Release_MMCSD/mmu.o
 .debug_frame   0x00000000       0x60 Release_MMCSD/mmu.o
 .text          0x00000000        0x0 ../..//bootloader/binary/drivers/Release/libdrivers.a(gpio_v2.o)
 .data          0x00000000        0x0 ../..//bootloader/binary/drivers/Release/libdrivers.a(gpio_v2.o)
 .bss           0x00000000        0x0 ../..//bootloader/binary/drivers/Release/libdrivers.a(gpio_v2.o)
 .text.GPIOModuleDisable
                0x00000000       0x10 ../..//bootloader/binary/drivers/Release/libdrivers.a(gpio_v2.o)
 .text.GPIODirModeGet
                0x00000000       0x18 ../..//bootloader/binary/drivers/Release/libdrivers.a(gpio_v2.o)
 .text.GPIOPinRead
                0x00000000       0x10 ../..//bootloader/binary/drivers/Release/libdrivers.a(gpio_v2.o)
 .text.GPIOMultiplePinsWrite
                0x00000000        0xc ../..//bootloader/binary/drivers/Release/libdrivers.a(gpio_v2.o)
 .text.GPIOMultiplePinsRead
                0x00000000        0xc ../..//bootloader/binary/drivers/Release/libdrivers.a(gpio_v2.o)
 .text.GPIOPinIntEnable
                0x00000000       0x18 ../..//bootloader/binary/drivers/Release/libdrivers.a(gpio_v2.o)
 .text.GPIOPinIntDisable
                0x00000000       0x18 ../..//bootloader/binary/drivers/Release/libdrivers.a(gpio_v2.o)
 .text.GPIOIntTypeSet
                0x00000000      0x1bc ../..//bootloader/binary/drivers/Release/libdrivers.a(gpio_v2.o)
 .text.GPIOIntTypeGet
                0x00000000       0x50 ../..//bootloader/binary/drivers/Release/libdrivers.a(gpio_v2.o)
 .text.GPIOPinIntStatus
                0x00000000       0x18 ../..//bootloader/binary/drivers/Release/libdrivers.a(gpio_v2.o)
 .text.GPIOPinIntClear
                0x00000000       0x18 ../..//bootloader/binary/drivers/Release/libdrivers.a(gpio_v2.o)
 .text.GPIORawIntStatus
                0x00000000       0x14 ../..//bootloader/binary/drivers/Release/libdrivers.a(gpio_v2.o)
 .text.GPIOTriggerPinInt
                0x00000000       0x18 ../..//bootloader/binary/drivers/Release/libdrivers.a(gpio_v2.o)
 .text.GPIOWakeupGlobalEnable
                0x00000000       0x10 ../..//bootloader/binary/drivers/Release/libdrivers.a(gpio_v2.o)
 .text.GPIOWakeupGlobalDisable
                0x00000000       0x10 ../..//bootloader/binary/drivers/Release/libdrivers.a(gpio_v2.o)
 .text.GPIOPinIntWakeUpEnable
                0x00000000       0x28 ../..//bootloader/binary/drivers/Release/libdrivers.a(gpio_v2.o)
 .text.GPIOPinIntWakeUpDisable
                0x00000000       0x28 ../..//bootloader/binary/drivers/Release/libdrivers.a(gpio_v2.o)
 .text.GPIOAutoIdleModeControl
                0x00000000       0x20 ../..//bootloader/binary/drivers/Release/libdrivers.a(gpio_v2.o)
 .text.GPIOIdleModeConfigure
                0x00000000       0x20 ../..//bootloader/binary/drivers/Release/libdrivers.a(gpio_v2.o)
 .text.GPIOGatingRatioConfigure
                0x00000000       0x20 ../..//bootloader/binary/drivers/Release/libdrivers.a(gpio_v2.o)
 .text.GPIODebounceFuncControl
                0x00000000       0x20 ../..//bootloader/binary/drivers/Release/libdrivers.a(gpio_v2.o)
 .text.GPIODebounceTimeConfig
                0x00000000        0xc ../..//bootloader/binary/drivers/Release/libdrivers.a(gpio_v2.o)
 .text.GPIORevisionInfoGet
                0x00000000        0x8 ../..//bootloader/binary/drivers/Release/libdrivers.a(gpio_v2.o)
 .text.gpioContextSave
                0x00000000       0x1c ../..//bootloader/binary/drivers/Release/libdrivers.a(gpio_v2.o)
 .text.gpioContextRestore
                0x00000000       0x1c ../..//bootloader/binary/drivers/Release/libdrivers.a(gpio_v2.o)
 .text          0x00000000        0x0 ../..//bootloader/binary/drivers/Release/libdrivers.a(hsi2c.o)
 .data          0x00000000        0x0 ../..//bootloader/binary/drivers/Release/libdrivers.a(hsi2c.o)
 .bss           0x00000000        0x0 ../..//bootloader/binary/drivers/Release/libdrivers.a(hsi2c.o)
 .text.I2CMasterBusy
                0x00000000        0xc ../..//bootloader/binary/drivers/Release/libdrivers.a(hsi2c.o)
 .text.I2CMasterErr
                0x00000000       0x14 ../..//bootloader/binary/drivers/Release/libdrivers.a(hsi2c.o)
 .text.I2CMasterIntEnableEx
                0x00000000       0x10 ../..//bootloader/binary/drivers/Release/libdrivers.a(hsi2c.o)
 .text.I2CMasterIntStatus
                0x00000000        0x8 ../..//bootloader/binary/drivers/Release/libdrivers.a(hsi2c.o)
 .text.I2CMasterIntStatusEx
                0x00000000        0xc ../..//bootloader/binary/drivers/Release/libdrivers.a(hsi2c.o)
 .text.I2CMasterIntRawStatusClearEx
                0x00000000        0x8 ../..//bootloader/binary/drivers/Release/libdrivers.a(hsi2c.o)
 .text.I2CMasterSlaveAddrGet
                0x00000000       0x10 ../..//bootloader/binary/drivers/Release/libdrivers.a(hsi2c.o)
 .text.I2CDataCountGet
                0x00000000        0x8 ../..//bootloader/binary/drivers/Release/libdrivers.a(hsi2c.o)
 .text.I2CFIFOThresholdConfig
                0x00000000       0x30 ../..//bootloader/binary/drivers/Release/libdrivers.a(hsi2c.o)
 .text.I2CFIFOClear
                0x00000000       0x18 ../..//bootloader/binary/drivers/Release/libdrivers.a(hsi2c.o)
 .text.I2CDMATxEventEnable
                0x00000000       0x18 ../..//bootloader/binary/drivers/Release/libdrivers.a(hsi2c.o)
 .text.I2CDMARxEventEnable
                0x00000000       0x18 ../..//bootloader/binary/drivers/Release/libdrivers.a(hsi2c.o)
 .text.I2CDMATxEventDisable
                0x00000000       0x18 ../..//bootloader/binary/drivers/Release/libdrivers.a(hsi2c.o)
 .text.I2CDMARxEventDisable
                0x00000000       0x18 ../..//bootloader/binary/drivers/Release/libdrivers.a(hsi2c.o)
 .text.I2CBufferStatus
                0x00000000       0x40 ../..//bootloader/binary/drivers/Release/libdrivers.a(hsi2c.o)
 .text.I2CActiveOwnAddressGet
                0x00000000       0x50 ../..//bootloader/binary/drivers/Release/libdrivers.a(hsi2c.o)
 .text.I2CClockBlockingControl
                0x00000000       0x68 ../..//bootloader/binary/drivers/Release/libdrivers.a(hsi2c.o)
 .text.I2COwnAddressSet
                0x00000000       0x30 ../..//bootloader/binary/drivers/Release/libdrivers.a(hsi2c.o)
 .text.I2CAutoIdleEnable
                0x00000000       0x10 ../..//bootloader/binary/drivers/Release/libdrivers.a(hsi2c.o)
 .text.I2CGlobalWakeUpEnable
                0x00000000       0x10 ../..//bootloader/binary/drivers/Release/libdrivers.a(hsi2c.o)
 .text.I2CGlobalWakeUpDisable
                0x00000000       0x10 ../..//bootloader/binary/drivers/Release/libdrivers.a(hsi2c.o)
 .text.I2CIdleModeSelect
                0x00000000       0x1c ../..//bootloader/binary/drivers/Release/libdrivers.a(hsi2c.o)
 .text.I2CClockActivitySelect
                0x00000000       0x1c ../..//bootloader/binary/drivers/Release/libdrivers.a(hsi2c.o)
 .text.I2CWakeUpEnable
                0x00000000       0x44 ../..//bootloader/binary/drivers/Release/libdrivers.a(hsi2c.o)
 .text.I2CWakeUpDisable
                0x00000000       0x44 ../..//bootloader/binary/drivers/Release/libdrivers.a(hsi2c.o)
 .text.I2CContextSave
                0x00000000       0x24 ../..//bootloader/binary/drivers/Release/libdrivers.a(hsi2c.o)
 .text.I2CContextRestore
                0x00000000       0x64 ../..//bootloader/binary/drivers/Release/libdrivers.a(hsi2c.o)
 .text          0x00000000        0x0 ../..//bootloader/binary/drivers/Release/libdrivers.a(hs_mmcsd.o)
 .data          0x00000000        0x0 ../..//bootloader/binary/drivers/Release/libdrivers.a(hs_mmcsd.o)
 .bss           0x00000000        0x0 ../..//bootloader/binary/drivers/Release/libdrivers.a(hs_mmcsd.o)
 .text.HSMMCSDIsIntClockStable
                0x00000000       0x48 ../..//bootloader/binary/drivers/Release/libdrivers.a(hs_mmcsd.o)
 .text.HSMMCSDIsHSupported
                0x00000000        0xc ../..//bootloader/binary/drivers/Release/libdrivers.a(hs_mmcsd.o)
 .text.HSMMCSDIsCmdComplete
                0x00000000       0x48 ../..//bootloader/binary/drivers/Release/libdrivers.a(hs_mmcsd.o)
 .text.HSMMCSDIsXferComplete
                0x00000000       0x48 ../..//bootloader/binary/drivers/Release/libdrivers.a(hs_mmcsd.o)
 .text.HSMMCSDDataGet
                0x00000000       0x24 ../..//bootloader/binary/drivers/Release/libdrivers.a(hs_mmcsd.o)
 .text.HSMMCSDIsCardWriteProtected
                0x00000000        0xc ../..//bootloader/binary/drivers/Release/libdrivers.a(hs_mmcsd.o)
 .text.MMCSDContextSave
                0x00000000       0x34 ../..//bootloader/binary/drivers/Release/libdrivers.a(hs_mmcsd.o)
 .text.MMCSDContextRestore
                0x00000000       0x34 ../..//bootloader/binary/drivers/Release/libdrivers.a(hs_mmcsd.o)
 .text          0x00000000        0x0 ../..//bootloader/binary/utils/Release/libutils.a(board.o)
 .data          0x00000000        0x0 ../..//bootloader/binary/utils/Release/libutils.a(board.o)
 .bss           0x00000000        0x0 ../..//bootloader/binary/utils/Release/libutils.a(board.o)
 .text.BoardVersionGet
                0x00000000        0xc ../..//bootloader/binary/utils/Release/libutils.a(board.o)
 .text.BoardNameGet
                0x00000000        0xc ../..//bootloader/binary/utils/Release/libutils.a(board.o)
 .text.BoardIdGet
                0x00000000       0x10 ../..//bootloader/binary/utils/Release/libutils.a(board.o)
 .text          0x00000000        0x0 ../..//bootloader/binary/utils/Release/libutils.a(uartStdio.o)
 .data          0x00000000        0x0 ../..//bootloader/binary/utils/Release/libutils.a(uartStdio.o)
 .bss           0x00000000        0x0 ../..//bootloader/binary/utils/Release/libutils.a(uartStdio.o)
 .text.UARTGets
                0x00000000       0x98 ../..//bootloader/binary/utils/Release/libutils.a(uartStdio.o)
 .text.UARTPutNum
                0x00000000       0xb0 ../..//bootloader/binary/utils/Release/libutils.a(uartStdio.o)
 .text.UARTPutHexNum
                0x00000000       0xa0 ../..//bootloader/binary/utils/Release/libutils.a(uartStdio.o)
 .text.UARTGetNum
                0x00000000       0x68 ../..//bootloader/binary/utils/Release/libutils.a(uartStdio.o)
 .text.UARTGetHexNum
                0x00000000      0x164 ../..//bootloader/binary/utils/Release/libutils.a(uartStdio.o)
 .text.UARTPutc
                0x00000000       0x14 ../..//bootloader/binary/utils/Release/libutils.a(uartStdio.o)
 .text.UARTGetc
                0x00000000       0x14 ../..//bootloader/binary/utils/Release/libutils.a(uartStdio.o)
 .text.UARTwrite
                0x00000000       0x58 ../..//bootloader/binary/utils/Release/libutils.a(uartStdio.o)
 .text.UARTprintf
                0x00000000      0x4c8 ../..//bootloader/binary/utils/Release/libutils.a(uartStdio.o)
 .text.UARTScanf
                0x00000000      0x718 ../..//bootloader/binary/utils/Release/libutils.a(uartStdio.o)
 .text.UARTPrintf
                0x00000000      0x4bc ../..//bootloader/binary/utils/Release/libutils.a(uartStdio.o)
 .rodata.str1.4
                0x00000000       0x60 ../..//bootloader/binary/utils/Release/libutils.a(uartStdio.o)
 .text          0x00000000        0x0 ../..//bootloader/binary/utils/Release/libutils.a(ascii.o)
 .data          0x00000000        0x0 ../..//bootloader/binary/utils/Release/libutils.a(ascii.o)
 .bss           0x00000000        0x0 ../..//bootloader/binary/utils/Release/libutils.a(ascii.o)
 .text.ASCIIToDigit
                0x00000000       0x84 ../..//bootloader/binary/utils/Release/libutils.a(ascii.o)
 .text.DigitToASCII
                0x00000000       0x38 ../..//bootloader/binary/utils/Release/libutils.a(ascii.o)
 .text.StrToEthrAddr
                0x00000000       0x80 ../..//bootloader/binary/utils/Release/libutils.a(ascii.o)
 .text.EthrAddrToStr
                0x00000000       0x84 ../..//bootloader/binary/utils/Release/libutils.a(ascii.o)
 .text.TimeToStr
                0x00000000       0x98 ../..//bootloader/binary/utils/Release/libutils.a(ascii.o)
 .text.DateToStr
                0x00000000       0x98 ../..//bootloader/binary/utils/Release/libutils.a(ascii.o)
 .debug_info    0x00000000      0x38a ../..//bootloader/binary/utils/Release/libutils.a(ascii.o)
 .debug_abbrev  0x00000000      0x171 ../..//bootloader/binary/utils/Release/libutils.a(ascii.o)
 .debug_loc     0x00000000      0x4e2 ../..//bootloader/binary/utils/Release/libutils.a(ascii.o)
 .debug_aranges
                0x00000000       0x48 ../..//bootloader/binary/utils/Release/libutils.a(ascii.o)
 .debug_ranges  0x00000000       0x38 ../..//bootloader/binary/utils/Release/libutils.a(ascii.o)
 .debug_line    0x00000000      0x16f ../..//bootloader/binary/utils/Release/libutils.a(ascii.o)
 .debug_str     0x00000000      0x17f ../..//bootloader/binary/utils/Release/libutils.a(ascii.o)
 .comment       0x00000000       0x71 ../..//bootloader/binary/utils/Release/libutils.a(ascii.o)
 .ARM.attributes
                0x00000000       0x37 ../..//bootloader/binary/utils/Release/libutils.a(ascii.o)
 .debug_frame   0x00000000       0xcc ../..//bootloader/binary/utils/Release/libutils.a(ascii.o)
 .text          0x00000000        0x0 ../..//bootloader/binary/platform/Release/libplatform.a(board.o)
 .data          0x00000000        0x0 ../..//bootloader/binary/platform/Release/libplatform.a(board.o)
 .bss           0x00000000        0x0 ../..//bootloader/binary/platform/Release/libplatform.a(board.o)
 .text          0x00000000        0x0 ../..//bootloader/binary/platform/Release/libplatform.a(eeprom.o)
 .data          0x00000000        0x0 ../..//bootloader/binary/platform/Release/libplatform.a(eeprom.o)
 .bss           0x00000000        0x0 ../..//bootloader/binary/platform/Release/libplatform.a(eeprom.o)
 .text          0x00000000        0x0 ../..//bootloader/binary/platform/Release/libplatform.a(gpio.o)
 .data          0x00000000        0x0 ../..//bootloader/binary/platform/Release/libplatform.a(gpio.o)
 .bss           0x00000000        0x0 ../..//bootloader/binary/platform/Release/libplatform.a(gpio.o)
 .text.GPIO1Pin23PinMuxSetup
                0x00000000       0x14 ../..//bootloader/binary/platform/Release/libplatform.a(gpio.o)
 .text.GPIO1ModuleClkConfig
                0x00000000       0x78 ../..//bootloader/binary/platform/Release/libplatform.a(gpio.o)
 .text.GPIO1PinMuxSetup
                0x00000000       0x1c ../..//bootloader/binary/platform/Release/libplatform.a(gpio.o)
 .text          0x00000000        0x0 ../..//bootloader/binary/platform/Release/libplatform.a(hsi2c.o)
 .data          0x00000000        0x0 ../..//bootloader/binary/platform/Release/libplatform.a(hsi2c.o)
 .bss           0x00000000        0x0 ../..//bootloader/binary/platform/Release/libplatform.a(hsi2c.o)
 .text.I2C1ModuleClkConfig
                0x00000000      0x1a0 ../..//bootloader/binary/platform/Release/libplatform.a(hsi2c.o)
 .text          0x00000000        0x0 ../..//bootloader/binary/platform/Release/libplatform.a(hs_mmcsd.o)
 .data          0x00000000        0x0 ../..//bootloader/binary/platform/Release/libplatform.a(hs_mmcsd.o)
 .bss           0x00000000        0x0 ../..//bootloader/binary/platform/Release/libplatform.a(hs_mmcsd.o)
 .text          0x00000000        0x0 ../..//bootloader/binary/platform/Release/libplatform.a(uartConsole.o)
 .data          0x00000000        0x0 ../..//bootloader/binary/platform/Release/libplatform.a(uartConsole.o)
 .bss           0x00000000        0x0 ../..//bootloader/binary/platform/Release/libplatform.a(uartConsole.o)
 .text.UARTConsoleGetc
                0x00000000       0x20 ../..//bootloader/binary/platform/Release/libplatform.a(uartConsole.o)
 .text          0x00000000        0x0 ../..//bootloader/binary/platform/Release/libplatform.a(uart.o)
 .data          0x00000000        0x0 ../..//bootloader/binary/platform/Release/libplatform.a(uart.o)
 .bss           0x00000000        0x0 ../..//bootloader/binary/platform/Release/libplatform.a(uart.o)
 .text          0x00000000        0x0 ../..//bootloader/binary/mmcsdlib/Release/libmmcsd.a(hs_mmcsdlib.o)
 .data          0x00000000        0x0 ../..//bootloader/binary/mmcsdlib/Release/libmmcsd.a(hs_mmcsdlib.o)
 .bss           0x00000000        0x0 ../..//bootloader/binary/mmcsdlib/Release/libmmcsd.a(hs_mmcsdlib.o)
 .text          0x00000000        0x0 ../..//bootloader/binary/mmcsdlib/Release/libmmcsd.a(mmcsd_proto.o)
 .data          0x00000000        0x0 ../..//bootloader/binary/mmcsdlib/Release/libmmcsd.a(mmcsd_proto.o)
 .bss           0x00000000        0x0 ../..//bootloader/binary/mmcsdlib/Release/libmmcsd.a(mmcsd_proto.o)
 .text.MMCSDCmdSend
                0x00000000       0x10 ../..//bootloader/binary/mmcsdlib/Release/libmmcsd.a(mmcsd_proto.o)
 .text.MMCSDCardReset
                0x00000000       0x30 ../..//bootloader/binary/mmcsdlib/Release/libmmcsd.a(mmcsd_proto.o)
 .text.MMCSDStopCmdSend
                0x00000000       0x40 ../..//bootloader/binary/mmcsdlib/Release/libmmcsd.a(mmcsd_proto.o)
 .text          0x00000000        0x0 /home/jacob/MAACS/gcc-arm-none-eabi-4_7-2012q4/arm-none-eabi/lib//libc.a(lib_a-memcmp.o)
 .data          0x00000000        0x0 /home/jacob/MAACS/gcc-arm-none-eabi-4_7-2012q4/arm-none-eabi/lib//libc.a(lib_a-memcmp.o)
 .bss           0x00000000        0x0 /home/jacob/MAACS/gcc-arm-none-eabi-4_7-2012q4/arm-none-eabi/lib//libc.a(lib_a-memcmp.o)
 .text          0x00000000        0x0 /home/jacob/MAACS/gcc-arm-none-eabi-4_7-2012q4/arm-none-eabi/lib//libc.a(lib_a-memcpy.o)
 .data          0x00000000        0x0 /home/jacob/MAACS/gcc-arm-none-eabi-4_7-2012q4/arm-none-eabi/lib//libc.a(lib_a-memcpy.o)
 .bss           0x00000000        0x0 /home/jacob/MAACS/gcc-arm-none-eabi-4_7-2012q4/arm-none-eabi/lib//libc.a(lib_a-memcpy.o)
 .text          0x00000000        0x0 /home/jacob/MAACS/gcc-arm-none-eabi-4_7-2012q4/arm-none-eabi/lib//libc.a(lib_a-memset.o)
 .data          0x00000000        0x0 /home/jacob/MAACS/gcc-arm-none-eabi-4_7-2012q4/arm-none-eabi/lib//libc.a(lib_a-memset.o)
 .bss           0x00000000        0x0 /home/jacob/MAACS/gcc-arm-none-eabi-4_7-2012q4/arm-none-eabi/lib//libc.a(lib_a-memset.o)
 .text          0x00000000        0x0 /home/jacob/MAACS/gcc-arm-none-eabi-4_7-2012q4/arm-none-eabi/lib//libc.a(lib_a-strcmp.o)
 .data          0x00000000        0x0 /home/jacob/MAACS/gcc-arm-none-eabi-4_7-2012q4/arm-none-eabi/lib//libc.a(lib_a-strcmp.o)
 .bss           0x00000000        0x0 /home/jacob/MAACS/gcc-arm-none-eabi-4_7-2012q4/arm-none-eabi/lib//libc.a(lib_a-strcmp.o)
 .data          0x00000000        0x0 /home/jacob/MAACS/gcc-arm-none-eabi-4_7-2012q4/lib/gcc/arm-none-eabi/4.7.3//libgcc.a(_udivsi3.o)
 .bss           0x00000000        0x0 /home/jacob/MAACS/gcc-arm-none-eabi-4_7-2012q4/lib/gcc/arm-none-eabi/4.7.3//libgcc.a(_udivsi3.o)
 .data          0x00000000        0x0 /home/jacob/MAACS/gcc-arm-none-eabi-4_7-2012q4/lib/gcc/arm-none-eabi/4.7.3//libgcc.a(_divsi3.o)
 .bss           0x00000000        0x0 /home/jacob/MAACS/gcc-arm-none-eabi-4_7-2012q4/lib/gcc/arm-none-eabi/4.7.3//libgcc.a(_divsi3.o)
 .data          0x00000000        0x0 /home/jacob/MAACS/gcc-arm-none-eabi-4_7-2012q4/lib/gcc/arm-none-eabi/4.7.3//libgcc.a(_dvmd_tls.o)
 .bss           0x00000000        0x0 /home/jacob/MAACS/gcc-arm-none-eabi-4_7-2012q4/lib/gcc/arm-none-eabi/4.7.3//libgcc.a(_dvmd_tls.o)
 .text          0x00000000        0x0 ../..//bootloader/binary/drivers/Release/libdrivers.a(uart_irda_cir.o)
 .data          0x00000000        0x0 ../..//bootloader/binary/drivers/Release/libdrivers.a(uart_irda_cir.o)
 .bss           0x00000000        0x0 ../..//bootloader/binary/drivers/Release/libdrivers.a(uart_irda_cir.o)
 .text.UARTDivisorLatchEnable
                0x00000000       0x10 ../..//bootloader/binary/drivers/Release/libdrivers.a(uart_irda_cir.o)
 .text.UARTRegConfModeRestore
                0x00000000        0x8 ../..//bootloader/binary/drivers/Release/libdrivers.a(uart_irda_cir.o)
 .text.UARTParityModeSet
                0x00000000       0x20 ../..//bootloader/binary/drivers/Release/libdrivers.a(uart_irda_cir.o)
 .text.UARTParityModeGet
                0x00000000        0xc ../..//bootloader/binary/drivers/Release/libdrivers.a(uart_irda_cir.o)
 .text.UARTDMAEnable
                0x00000000       0x30 ../..//bootloader/binary/drivers/Release/libdrivers.a(uart_irda_cir.o)
 .text.UARTDMADisable
                0x00000000       0x1c ../..//bootloader/binary/drivers/Release/libdrivers.a(uart_irda_cir.o)
 .text.UARTEnhanFuncEnable
                0x00000000       0x2c ../..//bootloader/binary/drivers/Release/libdrivers.a(uart_irda_cir.o)
 .text.UARTEnhanFuncBitValRestore
                0x00000000       0x30 ../..//bootloader/binary/drivers/Release/libdrivers.a(uart_irda_cir.o)
 .text.UARTSubConfigMSRSPRModeEn
                0x00000000       0x74 ../..//bootloader/binary/drivers/Release/libdrivers.a(uart_irda_cir.o)
 .text.UARTSubConfigXOFFModeEn
                0x00000000       0x74 ../..//bootloader/binary/drivers/Release/libdrivers.a(uart_irda_cir.o)
 .text.UARTIntEnable
                0x00000000       0x84 ../..//bootloader/binary/drivers/Release/libdrivers.a(uart_irda_cir.o)
 .text.UARTIntDisable
                0x00000000       0x74 ../..//bootloader/binary/drivers/Release/libdrivers.a(uart_irda_cir.o)
 .text.UARTSpaceAvail
                0x00000000       0x28 ../..//bootloader/binary/drivers/Release/libdrivers.a(uart_irda_cir.o)
 .text.UARTCharsAvail
                0x00000000       0x20 ../..//bootloader/binary/drivers/Release/libdrivers.a(uart_irda_cir.o)
 .text.UARTCharPutNonBlocking
                0x00000000       0x2c ../..//bootloader/binary/drivers/Release/libdrivers.a(uart_irda_cir.o)
 .text.UARTCharGetNonBlocking
                0x00000000       0x30 ../..//bootloader/binary/drivers/Release/libdrivers.a(uart_irda_cir.o)
 .text.UARTCharGet
                0x00000000       0x30 ../..//bootloader/binary/drivers/Release/libdrivers.a(uart_irda_cir.o)
 .text.UARTCharGetTimeout
                0x00000000       0x68 ../..//bootloader/binary/drivers/Release/libdrivers.a(uart_irda_cir.o)
 .text.UARTFIFOCharPut
                0x00000000        0x8 ../..//bootloader/binary/drivers/Release/libdrivers.a(uart_irda_cir.o)
 .text.UARTFIFOCharGet
                0x00000000        0xc ../..//bootloader/binary/drivers/Release/libdrivers.a(uart_irda_cir.o)
 .text.UARTFIFOWrite
                0x00000000       0x24 ../..//bootloader/binary/drivers/Release/libdrivers.a(uart_irda_cir.o)
 .text.UARTRxErrorGet
                0x00000000       0x20 ../..//bootloader/binary/drivers/Release/libdrivers.a(uart_irda_cir.o)
 .text.UARTIntIdentityGet
                0x00000000       0x20 ../..//bootloader/binary/drivers/Release/libdrivers.a(uart_irda_cir.o)
 .text.UARTIntPendingStatusGet
                0x00000000       0x20 ../..//bootloader/binary/drivers/Release/libdrivers.a(uart_irda_cir.o)
 .text.UARTFIFOEnableStatusGet
                0x00000000       0x28 ../..//bootloader/binary/drivers/Release/libdrivers.a(uart_irda_cir.o)
 .text.UARTAutoRTSAutoCTSControl
                0x00000000       0x40 ../..//bootloader/binary/drivers/Release/libdrivers.a(uart_irda_cir.o)
 .text.UARTSpecialCharDetectControl
                0x00000000       0x30 ../..//bootloader/binary/drivers/Release/libdrivers.a(uart_irda_cir.o)
 .text.UARTSoftwareFlowCtrlOptSet
                0x00000000       0x30 ../..//bootloader/binary/drivers/Release/libdrivers.a(uart_irda_cir.o)
 .text.UARTPulseShapingControl
                0x00000000       0x20 ../..//bootloader/binary/drivers/Release/libdrivers.a(uart_irda_cir.o)
 .text.UARTIdleModeConfigure
                0x00000000       0x20 ../..//bootloader/binary/drivers/Release/libdrivers.a(uart_irda_cir.o)
 .text.UARTWakeUpControl
                0x00000000       0x20 ../..//bootloader/binary/drivers/Release/libdrivers.a(uart_irda_cir.o)
 .text.UARTAutoIdleModeControl
                0x00000000       0x20 ../..//bootloader/binary/drivers/Release/libdrivers.a(uart_irda_cir.o)
 .text.UARTFlowCtrlTrigLvlConfig
                0x00000000       0x18 ../..//bootloader/binary/drivers/Release/libdrivers.a(uart_irda_cir.o)
 .text.UARTXON1XOFF1ValProgram
                0x00000000        0xc ../..//bootloader/binary/drivers/Release/libdrivers.a(uart_irda_cir.o)
 .text.UARTXON2XOFF2ValProgram
                0x00000000        0xc ../..//bootloader/binary/drivers/Release/libdrivers.a(uart_irda_cir.o)
 .text.UARTXONAnyFeatureControl
                0x00000000       0x5c ../..//bootloader/binary/drivers/Release/libdrivers.a(uart_irda_cir.o)
 .text.UARTLoopbackModeControl
                0x00000000       0x20 ../..//bootloader/binary/drivers/Release/libdrivers.a(uart_irda_cir.o)
 .text.UARTModemControlSet
                0x00000000       0x14 ../..//bootloader/binary/drivers/Release/libdrivers.a(uart_irda_cir.o)
 .text.UARTModemControlClear
                0x00000000       0x14 ../..//bootloader/binary/drivers/Release/libdrivers.a(uart_irda_cir.o)
 .text.UARTModemStatusGet
                0x00000000        0xc ../..//bootloader/binary/drivers/Release/libdrivers.a(uart_irda_cir.o)
 .text.UARTModemStatusChangeCheck
                0x00000000        0xc ../..//bootloader/binary/drivers/Release/libdrivers.a(uart_irda_cir.o)
 .text.UARTResumeOperation
                0x00000000        0x8 ../..//bootloader/binary/drivers/Release/libdrivers.a(uart_irda_cir.o)
 .text.UARTWakeUpEventsEnable
                0x00000000       0x14 ../..//bootloader/binary/drivers/Release/libdrivers.a(uart_irda_cir.o)
 .text.UARTWakeUpEventsDisable
                0x00000000       0x14 ../..//bootloader/binary/drivers/Release/libdrivers.a(uart_irda_cir.o)
 .text.UARTFIFOTrigLvlGranControl
                0x00000000       0x30 ../..//bootloader/binary/drivers/Release/libdrivers.a(uart_irda_cir.o)
 .text.UARTDSRInterruptControl
                0x00000000       0x20 ../..//bootloader/binary/drivers/Release/libdrivers.a(uart_irda_cir.o)
 .text.UARTTxEmptyIntControl
                0x00000000       0x20 ../..//bootloader/binary/drivers/Release/libdrivers.a(uart_irda_cir.o)
 .text.UARTRXCTSDSRWakeUpConfigure
                0x00000000       0x20 ../..//bootloader/binary/drivers/Release/libdrivers.a(uart_irda_cir.o)
 .text.UARTRXCTSDSRTransitionStatusGet
                0x00000000        0xc ../..//bootloader/binary/drivers/Release/libdrivers.a(uart_irda_cir.o)
 .text.UARTDMACounterResetControl
                0x00000000       0x20 ../..//bootloader/binary/drivers/Release/libdrivers.a(uart_irda_cir.o)
 .text.UARTTxFIFOFullStatusGet
                0x00000000        0xc ../..//bootloader/binary/drivers/Release/libdrivers.a(uart_irda_cir.o)
 .text.UARTTxFIFOLevelGet
                0x00000000        0x8 ../..//bootloader/binary/drivers/Release/libdrivers.a(uart_irda_cir.o)
 .text.UARTRxFIFOLevelGet
                0x00000000        0x8 ../..//bootloader/binary/drivers/Release/libdrivers.a(uart_irda_cir.o)
 .text.UARTAutobaudParityGet
                0x00000000       0x1c ../..//bootloader/binary/drivers/Release/libdrivers.a(uart_irda_cir.o)
 .text.UARTAutobaudWordLenGet
                0x00000000       0x1c ../..//bootloader/binary/drivers/Release/libdrivers.a(uart_irda_cir.o)
 .text.UARTAutobaudSpeedGet
                0x00000000       0x1c ../..//bootloader/binary/drivers/Release/libdrivers.a(uart_irda_cir.o)
 .text.UARTScratchPadRegWrite
                0x00000000       0x20 ../..//bootloader/binary/drivers/Release/libdrivers.a(uart_irda_cir.o)
 .text.UARTScratchPadRegRead
                0x00000000        0xc ../..//bootloader/binary/drivers/Release/libdrivers.a(uart_irda_cir.o)
 .text.UARTModuleVersionNumberGet
                0x00000000        0xc ../..//bootloader/binary/drivers/Release/libdrivers.a(uart_irda_cir.o)
 .text.UARTTxDMAThresholdControl
                0x00000000       0x20 ../..//bootloader/binary/drivers/Release/libdrivers.a(uart_irda_cir.o)
 .text.UARTTxDMAThresholdValConfig
                0x00000000       0x20 ../..//bootloader/binary/drivers/Release/libdrivers.a(uart_irda_cir.o)

Memory Configuration

Name             Origin             Length             Attributes
IRAM_MEM         0x402f0400         0x0001fbff
*default*        0x00000000         0xffffffff

Linker script and memory map

LOAD Release_MMCSD/bl_copy.o
LOAD Release_MMCSD/bl_hsmmcsd.o
LOAD Release_MMCSD/bl_init.o
LOAD Release_MMCSD/bl_main.o
LOAD Release_MMCSD/bl_platform.o
LOAD Release_MMCSD/cache.o
LOAD Release_MMCSD/cp15.o
LOAD Release_MMCSD/device.o
LOAD Release_MMCSD/fat_mmcsd.o
LOAD Release_MMCSD/ff.o
LOAD Release_MMCSD/mmu.o
                0x402f0400                BOOT_START_ADDR = 0x402f0400

.rsthand        0x402f0400       0x80
                0x402f0400                . = ALIGN (0x4)
 *bl_init.o(.text)
 .text          0x402f0400       0x80 Release_MMCSD/bl_init.o
                0x402f0400                Entry

.text           0x402f0480     0x6694
                0x402f0480                . = ALIGN (0x4)
 *(.text*)
 .text.ImageCopy
                0x402f0480       0x20 Release_MMCSD/bl_copy.o
                0x402f0480                ImageCopy
 .text.HSMMCSDStatusGet
                0x402f04a0       0x90 Release_MMCSD/bl_hsmmcsd.o
 .text.HSMMCSDXferStatusGet
                0x402f0530      0x1c4 Release_MMCSD/bl_hsmmcsd.o
 .text.HSMMCSDXferSetup
                0x402f06f4       0xd8 Release_MMCSD/bl_hsmmcsd.o
 .text.HSMMCSDCmdStatusGet
                0x402f07cc       0xd0 Release_MMCSD/bl_hsmmcsd.o
 .text.HSMMCSDFsMount
                0x402f089c       0x38 Release_MMCSD/bl_hsmmcsd.o
                0x402f089c                HSMMCSDFsMount
 .text.HSMMCSDImageCopy
                0x402f08d4      0x14c Release_MMCSD/bl_hsmmcsd.o
                0x402f08d4                HSMMCSDImageCopy
 .text.HSMMCSDInit
                0x402f0a20      0x158 Release_MMCSD/bl_hsmmcsd.o
                0x402f0a20                HSMMCSDInit
 .text.startup.main
                0x402f0b78       0xb8 Release_MMCSD/bl_main.o
                0x402f0b78                main
 .text.BootMaxOppGet
                0x402f0c30       0xa4 Release_MMCSD/bl_platform.o
                0x402f0c30                BootMaxOppGet
 .text.CorePLLInit
                0x402f0cd4      0x108 Release_MMCSD/bl_platform.o
                0x402f0cd4                CorePLLInit
 .text.DisplayPLLInit
                0x402f0ddc       0xd0 Release_MMCSD/bl_platform.o
                0x402f0ddc                DisplayPLLInit
 .text.PerPLLInit
                0x402f0eac       0xcc Release_MMCSD/bl_platform.o
                0x402f0eac                PerPLLInit
 .text.DDRPLLInit
                0x402f0f78       0xd0 Release_MMCSD/bl_platform.o
                0x402f0f78                DDRPLLInit
 .text.MPUPLLInit
                0x402f1048       0xd0 Release_MMCSD/bl_platform.o
                0x402f1048                MPUPLLInit
 .text.InterfaceClkInit
                0x402f1118       0xf4 Release_MMCSD/bl_platform.o
                0x402f1118                InterfaceClkInit
 .text.PowerDomainTransitionInit
                0x402f120c       0x48 Release_MMCSD/bl_platform.o
                0x402f120c                PowerDomainTransitionInit
 .text.PLLInit  0x402f1254       0x80 Release_MMCSD/bl_platform.o
                0x402f1254                PLLInit
 .text.SetupI2C
                0x402f12d4       0xbc Release_MMCSD/bl_platform.o
                0x402f12d4                SetupI2C
 .text.CleanupInterrupts
                0x402f1390       0x20 Release_MMCSD/bl_platform.o
                0x402f1390                CleanupInterrupts
 .text.SetupI2CTransmit
                0x402f13b0      0x128 Release_MMCSD/bl_platform.o
                0x402f13b0                SetupI2CTransmit
 .text.SetupReception
                0x402f14d8      0x1c0 Release_MMCSD/bl_platform.o
                0x402f14d8                SetupReception
 .text.TPS65217RegRead
                0x402f1698       0x4c Release_MMCSD/bl_platform.o
                0x402f1698                TPS65217RegRead
 .text.TPS65217RegWrite
                0x402f16e4      0x114 Release_MMCSD/bl_platform.o
                0x402f16e4                TPS65217RegWrite
 .text.TPS65217VoltageUpdate
                0x402f17f8       0x3c Release_MMCSD/bl_platform.o
                0x402f17f8                TPS65217VoltageUpdate
 .text.SetVdd1OpVoltage
                0x402f1834       0x1c Release_MMCSD/bl_platform.o
                0x402f1834                SetVdd1OpVoltage
 .text.ConfigVddOpVoltage
                0x402f1850       0xec Release_MMCSD/bl_platform.o
                0x402f1850                ConfigVddOpVoltage
 .text.DDR3Init
                0x402f193c      0x1c8 Release_MMCSD/bl_platform.o
                0x402f193c                DDR3Init
 .text.DDR2Init
                0x402f1b04      0x218 Release_MMCSD/bl_platform.o
                0x402f1b04                DDR2Init
 .text.EMIFInit
                0x402f1d1c       0x68 Release_MMCSD/bl_platform.o
                0x402f1d1c                EMIFInit
 .text.BlPlatformMMCSDSetup
                0x402f1d84       0x20 Release_MMCSD/bl_platform.o
                0x402f1d84                BlPlatformMMCSDSetup
 .text.UARTSetup
                0x402f1da4       0x44 Release_MMCSD/bl_platform.o
                0x402f1da4                UARTSetup
 .text.BlPlatformConfig
                0x402f1de8      0x1d8 Release_MMCSD/bl_platform.o
                0x402f1de8                BlPlatformConfig
 .text.BlPlatformConfigPostBoot
                0x402f1fc0        0x4 Release_MMCSD/bl_platform.o
                0x402f1fc0                BlPlatformConfigPostBoot
 .text.BlPlatformMMCSDImageCopy
                0x402f1fc4       0x24 Release_MMCSD/bl_platform.o
                0x402f1fc4                BlPlatformMMCSDImageCopy
 .text.CacheDataCleanBuff
                0x402f1fe8       0x14 Release_MMCSD/cache.o
                0x402f1fe8                CacheDataCleanBuff
 .text.CacheDataInvalidateBuff
                0x402f1ffc       0x14 Release_MMCSD/cache.o
                0x402f1ffc                CacheDataInvalidateBuff
 .text          0x402f2010      0x488 Release_MMCSD/cp15.o
                0x402f2010                CP15ICacheDisable
                0x402f202c                CP15DCacheDisable
                0x402f2048                CP15ICacheEnable
                0x402f2058                CP15DCacheEnable
                0x402f2068                CP15DCacheFlush
                0x402f20fc                CP15DCacheClean
                0x402f2190                CP15DCacheCleanFlush
                0x402f2224                CP15ICacheFlush
                0x402f2234                CP15DCacheCleanBuff
                0x402f2288                CP15DCacheCleanFlushBuff
                0x402f22dc                CP15DCacheFlushBuff
                0x402f2340                CP15ICacheFlushBuff
                0x402f2394                CP15Ttb0Set
                0x402f23a0                CP15TlbInvalidate
                0x402f23ac                CP15MMUDisable
                0x402f23c4                CP15MMUEnable
                0x402f23d8                CP15VectorBaseAddrSet
                0x402f23e4                CP15BranchPredictorInvalidate
                0x402f23f0                CP15BranchPredictionEnable
                0x402f2400                CP15BranchPredictionDisable
                0x402f2410                CP15DomainAccessClientSet
                0x402f2420                CP15ControlFeatureDisable
                0x402f2434                CP15ControlFeatureEnable
                0x402f2448                CP15TtbCtlTtb0Config
                0x402f2458                CP15AuxControlFeatureEnable
                0x402f246c                CP15AuxControlFeatureDisable
                0x402f2480                CP15MainIdPrimPartNumGet
 .text.DeviceVersionGet
                0x402f2498       0x14 Release_MMCSD/device.o
                0x402f2498                DeviceVersionGet
 .text.SysConfigOppDataGet
                0x402f24ac       0x18 Release_MMCSD/device.o
                0x402f24ac                SysConfigOppDataGet
 .text.disk_initialize
                0x402f24c4       0xb4 Release_MMCSD/fat_mmcsd.o
                0x402f24c4                disk_initialize
 .text.disk_status
                0x402f2578        0x8 Release_MMCSD/fat_mmcsd.o
                0x402f2578                disk_status
 .text.disk_read
                0x402f2580       0x3c Release_MMCSD/fat_mmcsd.o
                0x402f2580                disk_read
 .text.disk_write
                0x402f25bc       0x3c Release_MMCSD/fat_mmcsd.o
                0x402f25bc                disk_write
 .text.disk_ioctl
                0x402f25f8        0x8 Release_MMCSD/fat_mmcsd.o
                0x402f25f8                disk_ioctl
 .text.get_fattime
                0x402f2600        0xc Release_MMCSD/fat_mmcsd.o
                0x402f2600                get_fattime
 .text.move_window
                0x402f260c       0xec Release_MMCSD/ff.o
 .text.put_cluster
                0x402f26f8      0x154 Release_MMCSD/ff.o
 .text.validate
                0x402f284c       0x38 Release_MMCSD/ff.o
 .text.check_fs
                0x402f2884       0xa0 Release_MMCSD/ff.o
 .text.auto_mount
                0x402f2924      0x30c Release_MMCSD/ff.o
 .text.get_cluster
                0x402f2c30      0x134 Release_MMCSD/ff.o
 .text.next_dir_entry
                0x402f2d64       0xb0 Release_MMCSD/ff.o
 .text.trace_path
                0x402f2e14      0x330 Release_MMCSD/ff.o
 .text.create_chain
                0x402f3144      0x100 Release_MMCSD/ff.o
 .text.reserve_direntry
                0x402f3244      0x1b0 Release_MMCSD/ff.o
 .text.remove_chain
                0x402f33f4       0x9c Release_MMCSD/ff.o
 .text.sync     0x402f3490       0x58 Release_MMCSD/ff.o
 .text.f_mount  0x402f34e8       0x6c Release_MMCSD/ff.o
                0x402f34e8                f_mount
 .text.f_open   0x402f3554      0x304 Release_MMCSD/ff.o
                0x402f3554                f_open
 .text.f_read   0x402f3858      0x284 Release_MMCSD/ff.o
                0x402f3858                f_read
 .text.f_sync   0x402f3adc      0x148 Release_MMCSD/ff.o
                0x402f3adc                f_sync
 .text.f_close  0x402f3c24       0x20 Release_MMCSD/ff.o
                0x402f3c24                f_close
 .text.GPIOModuleReset
                0x402f3c44       0x20 ../..//bootloader/binary/drivers/Release/libdrivers.a(gpio_v2.o)
                0x402f3c44                GPIOModuleReset
 .text.GPIOModuleEnable
                0x402f3c64       0x10 ../..//bootloader/binary/drivers/Release/libdrivers.a(gpio_v2.o)
                0x402f3c64                GPIOModuleEnable
 .text.GPIODirModeSet
                0x402f3c74       0x1c ../..//bootloader/binary/drivers/Release/libdrivers.a(gpio_v2.o)
                0x402f3c74                GPIODirModeSet
 .text.GPIOPinWrite
                0x402f3c90       0x1c ../..//bootloader/binary/drivers/Release/libdrivers.a(gpio_v2.o)
                0x402f3c90                GPIOPinWrite
 .text.I2CMasterInitExpClk
                0x402f3cac       0x50 ../..//bootloader/binary/drivers/Release/libdrivers.a(hsi2c.o)
                0x402f3cac                I2CMasterInitExpClk
 .text.I2CMasterEnable
                0x402f3cfc       0x10 ../..//bootloader/binary/drivers/Release/libdrivers.a(hsi2c.o)
                0x402f3cfc                I2CMasterEnable
 .text.I2CMasterDisable
                0x402f3d0c       0x10 ../..//bootloader/binary/drivers/Release/libdrivers.a(hsi2c.o)
                0x402f3d0c                I2CMasterDisable
 .text.I2CMasterBusBusy
                0x402f3d1c        0xc ../..//bootloader/binary/drivers/Release/libdrivers.a(hsi2c.o)
                0x402f3d1c                I2CMasterBusBusy
 .text.I2CMasterControl
                0x402f3d28        0xc ../..//bootloader/binary/drivers/Release/libdrivers.a(hsi2c.o)
                0x402f3d28                I2CMasterControl
 .text.I2CMasterStart
                0x402f3d34       0x10 ../..//bootloader/binary/drivers/Release/libdrivers.a(hsi2c.o)
                0x402f3d34                I2CMasterStart
 .text.I2CMasterStop
                0x402f3d44       0x10 ../..//bootloader/binary/drivers/Release/libdrivers.a(hsi2c.o)
                0x402f3d44                I2CMasterStop
 .text.I2CMasterIntDisableEx
                0x402f3d54        0x8 ../..//bootloader/binary/drivers/Release/libdrivers.a(hsi2c.o)
                0x402f3d54                I2CMasterIntDisableEx
 .text.I2CMasterIntRawStatus
                0x402f3d5c        0x8 ../..//bootloader/binary/drivers/Release/libdrivers.a(hsi2c.o)
                0x402f3d5c                I2CMasterIntRawStatus
 .text.I2CMasterIntRawStatusEx
                0x402f3d64        0xc ../..//bootloader/binary/drivers/Release/libdrivers.a(hsi2c.o)
                0x402f3d64                I2CMasterIntRawStatusEx
 .text.I2CMasterIntClearEx
                0x402f3d70        0x8 ../..//bootloader/binary/drivers/Release/libdrivers.a(hsi2c.o)
                0x402f3d70                I2CMasterIntClearEx
 .text.I2CMasterSlaveAddrSet
                0x402f3d78        0x8 ../..//bootloader/binary/drivers/Release/libdrivers.a(hsi2c.o)
                0x402f3d78                I2CMasterSlaveAddrSet
 .text.I2CSetDataCount
                0x402f3d80        0x8 ../..//bootloader/binary/drivers/Release/libdrivers.a(hsi2c.o)
                0x402f3d80                I2CSetDataCount
 .text.I2CSoftReset
                0x402f3d88       0x10 ../..//bootloader/binary/drivers/Release/libdrivers.a(hsi2c.o)
                0x402f3d88                I2CSoftReset
 .text.I2CAutoIdleDisable
                0x402f3d98       0x10 ../..//bootloader/binary/drivers/Release/libdrivers.a(hsi2c.o)
                0x402f3d98                I2CAutoIdleDisable
 .text.I2CSystemStatusGet
                0x402f3da8        0xc ../..//bootloader/binary/drivers/Release/libdrivers.a(hsi2c.o)
                0x402f3da8                I2CSystemStatusGet
 .text.I2CMasterDataPut
                0x402f3db4        0x8 ../..//bootloader/binary/drivers/Release/libdrivers.a(hsi2c.o)
                0x402f3db4                I2CMasterDataPut
 .text.I2CMasterDataGet
                0x402f3dbc        0xc ../..//bootloader/binary/drivers/Release/libdrivers.a(hsi2c.o)
                0x402f3dbc                I2CMasterDataGet
 .text.HSMMCSDSoftReset
                0x402f3dc8       0x58 ../..//bootloader/binary/drivers/Release/libdrivers.a(hs_mmcsd.o)
                0x402f3dc8                HSMMCSDSoftReset
 .text.HSMMCSDLinesReset
                0x402f3e20       0x5c ../..//bootloader/binary/drivers/Release/libdrivers.a(hs_mmcsd.o)
                0x402f3e20                HSMMCSDLinesReset
 .text.HSMMCSDSystemConfig
                0x402f3e7c       0x20 ../..//bootloader/binary/drivers/Release/libdrivers.a(hs_mmcsd.o)
                0x402f3e7c                HSMMCSDSystemConfig
 .text.HSMMCSDBusWidthSet
                0x402f3e9c       0x68 ../..//bootloader/binary/drivers/Release/libdrivers.a(hs_mmcsd.o)
                0x402f3e9c                HSMMCSDBusWidthSet
 .text.HSMMCSDBusVoltSet
                0x402f3f04       0x1c ../..//bootloader/binary/drivers/Release/libdrivers.a(hs_mmcsd.o)
                0x402f3f04                HSMMCSDBusVoltSet
 .text.HSMMCSDBusPower
                0x402f3f20       0x68 ../..//bootloader/binary/drivers/Release/libdrivers.a(hs_mmcsd.o)
                0x402f3f20                HSMMCSDBusPower
 .text.HSMMCSDIntClock
                0x402f3f88       0x88 ../..//bootloader/binary/drivers/Release/libdrivers.a(hs_mmcsd.o)
                0x402f3f88                HSMMCSDIntClock
 .text.HSMMCSDSupportedVoltSet
                0x402f4010       0x1c ../..//bootloader/binary/drivers/Release/libdrivers.a(hs_mmcsd.o)
                0x402f4010                HSMMCSDSupportedVoltSet
 .text.HSMMCSDDataTimeoutSet
                0x402f402c       0x1c ../..//bootloader/binary/drivers/Release/libdrivers.a(hs_mmcsd.o)
                0x402f402c                HSMMCSDDataTimeoutSet
 .text.HSMMCSDBusFreqSet
                0x402f4048      0x174 ../..//bootloader/binary/drivers/Release/libdrivers.a(hs_mmcsd.o)
                0x402f4048                HSMMCSDBusFreqSet
 .text.HSMMCSDInitStreamSend
                0x402f41bc       0x90 ../..//bootloader/binary/drivers/Release/libdrivers.a(hs_mmcsd.o)
                0x402f41bc                HSMMCSDInitStreamSend
 .text.HSMMCSDIntrStatusEnable
                0x402f424c       0x10 ../..//bootloader/binary/drivers/Release/libdrivers.a(hs_mmcsd.o)
                0x402f424c                HSMMCSDIntrStatusEnable
 .text.HSMMCSDIntrStatusDisable
                0x402f425c       0x10 ../..//bootloader/binary/drivers/Release/libdrivers.a(hs_mmcsd.o)
                0x402f425c                HSMMCSDIntrStatusDisable
 .text.HSMMCSDIntrEnable
                0x402f426c       0x1c ../..//bootloader/binary/drivers/Release/libdrivers.a(hs_mmcsd.o)
                0x402f426c                HSMMCSDIntrEnable
 .text.HSMMCSDIntrStatusGet
                0x402f4288        0xc ../..//bootloader/binary/drivers/Release/libdrivers.a(hs_mmcsd.o)
                0x402f4288                HSMMCSDIntrStatusGet
 .text.HSMMCSDIntrStatusClear
                0x402f4294        0x8 ../..//bootloader/binary/drivers/Release/libdrivers.a(hs_mmcsd.o)
                0x402f4294                HSMMCSDIntrStatusClear
 .text.HSMMCSDBlkLenSet
                0x402f429c       0x20 ../..//bootloader/binary/drivers/Release/libdrivers.a(hs_mmcsd.o)
                0x402f429c                HSMMCSDBlkLenSet
 .text.HSMMCSDCommandSend
                0x402f42bc       0x40 ../..//bootloader/binary/drivers/Release/libdrivers.a(hs_mmcsd.o)
                0x402f42bc                HSMMCSDCommandSend
 .text.HSMMCSDResponseGet
                0x402f42fc       0x24 ../..//bootloader/binary/drivers/Release/libdrivers.a(hs_mmcsd.o)
                0x402f42fc                HSMMCSDResponseGet
 .text.HSMMCSDIsCardInserted
                0x402f4320        0xc ../..//bootloader/binary/drivers/Release/libdrivers.a(hs_mmcsd.o)
                0x402f4320                HSMMCSDIsCardInserted
 .text.BoardInfoInit
                0x402f432c       0xb4 ../..//bootloader/binary/utils/Release/libutils.a(board.o)
                0x402f432c                BoardInfoInit
 .text.UARTStdioInit
                0x402f43e0       0x14 ../..//bootloader/binary/utils/Release/libutils.a(uartStdio.o)
                0x402f43e0                UARTStdioInit
 .text.UARTPuts
                0x402f43f4       0x78 ../..//bootloader/binary/utils/Release/libutils.a(uartStdio.o)
                0x402f43f4                UARTPuts
 .text.BoardInfoCheck
                0x402f446c       0xd4 ../..//bootloader/binary/platform/Release/libplatform.a(board.o)
                0x402f446c                BoardInfoCheck
 .text.EEPROMI2CSetUp
                0x402f4540       0xe0 ../..//bootloader/binary/platform/Release/libplatform.a(eeprom.o)
                0x402f4540                EEPROMI2CSetUp
 .text.EEPROMI2CRead
                0x402f4620      0x1d4 ../..//bootloader/binary/platform/Release/libplatform.a(eeprom.o)
                0x402f4620                EEPROMI2CRead
 .text.BoardInfoRead
                0x402f47f4       0x34 ../..//bootloader/binary/platform/Release/libplatform.a(eeprom.o)
                0x402f47f4                BoardInfoRead
 .text.GPIO0ModuleClkConfig
                0x402f4828       0xdc ../..//bootloader/binary/platform/Release/libplatform.a(gpio.o)
                0x402f4828                GPIO0ModuleClkConfig
 .text.GpioPinMuxSetup
                0x402f4904       0x10 ../..//bootloader/binary/platform/Release/libplatform.a(gpio.o)
                0x402f4904                GpioPinMuxSetup
 .text.I2CPinMuxSetup
                0x402f4914       0x3c ../..//bootloader/binary/platform/Release/libplatform.a(hsi2c.o)
                0x402f4914                I2CPinMuxSetup
 .text.I2C0ModuleClkConfig
                0x402f4950      0x25c ../..//bootloader/binary/platform/Release/libplatform.a(hsi2c.o)
                0x402f4950                I2C0ModuleClkConfig
 .text.HSMMCSDPinMuxSetup
                0x402f4bac       0x30 ../..//bootloader/binary/platform/Release/libplatform.a(hs_mmcsd.o)
                0x402f4bac                HSMMCSDPinMuxSetup
 .text.HSMMCSDModuleClkConfig
                0x402f4bdc       0x2c ../..//bootloader/binary/platform/Release/libplatform.a(hs_mmcsd.o)
                0x402f4bdc                HSMMCSDModuleClkConfig
 .text.UARTConsoleInit
                0x402f4c08       0xf0 ../..//bootloader/binary/platform/Release/libplatform.a(uartConsole.o)
                0x402f4c08                UARTConsoleInit
 .text.UARTConsolePutc
                0x402f4cf8       0x20 ../..//bootloader/binary/platform/Release/libplatform.a(uartConsole.o)
                0x402f4cf8                UARTConsolePutc
 .text.UARTPinMuxSetup
                0x402f4d18       0x24 ../..//bootloader/binary/platform/Release/libplatform.a(uart.o)
                0x402f4d18                UARTPinMuxSetup
 .text.UART0ModuleClkConfig
                0x402f4d3c      0x25c ../..//bootloader/binary/platform/Release/libplatform.a(uart.o)
                0x402f4d3c                UART0ModuleClkConfig
 .text.HSMMCSDCardPresent
                0x402f4f98       0x18 ../..//bootloader/binary/mmcsdlib/Release/libmmcsd.a(hs_mmcsdlib.o)
                0x402f4f98                HSMMCSDCardPresent
 .text.HSMMCSDIntEnable
                0x402f4fb0       0x20 ../..//bootloader/binary/mmcsdlib/Release/libmmcsd.a(hs_mmcsdlib.o)
                0x402f4fb0                HSMMCSDIntEnable
 .text.HSMMCSDControllerInit
                0x402f4fd0      0x124 ../..//bootloader/binary/mmcsdlib/Release/libmmcsd.a(hs_mmcsdlib.o)
                0x402f4fd0                HSMMCSDControllerInit
 .text.HSMMCSDCmdSend
                0x402f50f4      0x12c ../..//bootloader/binary/mmcsdlib/Release/libmmcsd.a(hs_mmcsdlib.o)
                0x402f50f4                HSMMCSDCmdSend
 .text.HSMMCSDBusWidthConfig
                0x402f5220       0x20 ../..//bootloader/binary/mmcsdlib/Release/libmmcsd.a(hs_mmcsdlib.o)
                0x402f5220                HSMMCSDBusWidthConfig
 .text.HSMMCSDBusFreqConfig
                0x402f5240       0x20 ../..//bootloader/binary/mmcsdlib/Release/libmmcsd.a(hs_mmcsdlib.o)
                0x402f5240                HSMMCSDBusFreqConfig
 .text.MMCSDAppCmdSend
                0x402f5260       0x58 ../..//bootloader/binary/mmcsdlib/Release/libmmcsd.a(mmcsd_proto.o)
                0x402f5260                MMCSDAppCmdSend
 .text.MMCSDBusWidthSet
                0x402f52b8       0x98 ../..//bootloader/binary/mmcsdlib/Release/libmmcsd.a(mmcsd_proto.o)
                0x402f52b8                MMCSDBusWidthSet
 .text.MMCSDTranSpeedSet
                0x402f5350       0xf0 ../..//bootloader/binary/mmcsdlib/Release/libmmcsd.a(mmcsd_proto.o)
                0x402f5350                MMCSDTranSpeedSet
 .text.MMCSDCardTypeCheck
                0x402f5440       0x34 ../..//bootloader/binary/mmcsdlib/Release/libmmcsd.a(mmcsd_proto.o)
                0x402f5440                MMCSDCardTypeCheck
 .text.MMCSDCtrlInit
                0x402f5474       0x10 ../..//bootloader/binary/mmcsdlib/Release/libmmcsd.a(mmcsd_proto.o)
                0x402f5474                MMCSDCtrlInit
 .text.MMCSDCardPresent
                0x402f5484       0x10 ../..//bootloader/binary/mmcsdlib/Release/libmmcsd.a(mmcsd_proto.o)
                0x402f5484                MMCSDCardPresent
 .text.MMCSDIntEnable
                0x402f5494       0x10 ../..//bootloader/binary/mmcsdlib/Release/libmmcsd.a(mmcsd_proto.o)
                0x402f5494                MMCSDIntEnable
 .text.MMCSDCardInit
                0x402f54a4      0x41c ../..//bootloader/binary/mmcsdlib/Release/libmmcsd.a(mmcsd_proto.o)
                0x402f54a4                MMCSDCardInit
 .text.MMCSDWriteCmdSend
                0x402f58c0      0x110 ../..//bootloader/binary/mmcsdlib/Release/libmmcsd.a(mmcsd_proto.o)
                0x402f58c0                MMCSDWriteCmdSend
 .text.MMCSDReadCmdSend
                0x402f59d0      0x108 ../..//bootloader/binary/mmcsdlib/Release/libmmcsd.a(mmcsd_proto.o)
                0x402f59d0                MMCSDReadCmdSend
 .text.memcmp   0x402f5ad8       0xb4 /home/jacob/MAACS/gcc-arm-none-eabi-4_7-2012q4/arm-none-eabi/lib//libc.a(lib_a-memcmp.o)
                0x402f5ad8                memcmp
 .text.memcpy   0x402f5b8c       0xf4 /home/jacob/MAACS/gcc-arm-none-eabi-4_7-2012q4/arm-none-eabi/lib//libc.a(lib_a-memcpy.o)
                0x402f5b8c                memcpy
 .text.memset   0x402f5c80       0xf8 /home/jacob/MAACS/gcc-arm-none-eabi-4_7-2012q4/arm-none-eabi/lib//libc.a(lib_a-memset.o)
                0x402f5c80                memset
 .text.strcmp   0x402f5d78       0x94 /home/jacob/MAACS/gcc-arm-none-eabi-4_7-2012q4/arm-none-eabi/lib//libc.a(lib_a-strcmp.o)
                0x402f5d78                strcmp
 .text.strcmp_unaligned
                0x402f5e0c      0x19c /home/jacob/MAACS/gcc-arm-none-eabi-4_7-2012q4/arm-none-eabi/lib//libc.a(lib_a-strcmp.o)
 .text          0x402f5fa8      0x114 /home/jacob/MAACS/gcc-arm-none-eabi-4_7-2012q4/lib/gcc/arm-none-eabi/4.7.3//libgcc.a(_udivsi3.o)
                0x402f5fa8                __udivsi3
                0x402f5fa8                __aeabi_uidiv
                0x402f609c                __aeabi_uidivmod
 .text          0x402f60bc      0x148 /home/jacob/MAACS/gcc-arm-none-eabi-4_7-2012q4/lib/gcc/arm-none-eabi/4.7.3//libgcc.a(_divsi3.o)
                0x402f60bc                __aeabi_idiv
                0x402f60bc                __divsi3
                0x402f61e4                __aeabi_idivmod
 .text          0x402f6204        0x4 /home/jacob/MAACS/gcc-arm-none-eabi-4_7-2012q4/lib/gcc/arm-none-eabi/4.7.3//libgcc.a(_dvmd_tls.o)
                0x402f6204                __aeabi_ldiv0
                0x402f6204                __aeabi_idiv0
 .text.UARTOperatingModeSelect
                0x402f6208       0x2c ../..//bootloader/binary/drivers/Release/libdrivers.a(uart_irda_cir.o)
                0x402f6208                UARTOperatingModeSelect
 .text.UARTDivisorValCompute
                0x402f6234       0x68 ../..//bootloader/binary/drivers/Release/libdrivers.a(uart_irda_cir.o)
                0x402f6234                UARTDivisorValCompute
 .text.UARTDivisorLatchDisable
                0x402f629c       0x10 ../..//bootloader/binary/drivers/Release/libdrivers.a(uart_irda_cir.o)
                0x402f629c                UARTDivisorLatchDisable
 .text.UARTRegConfigModeEnable
                0x402f62ac       0x44 ../..//bootloader/binary/drivers/Release/libdrivers.a(uart_irda_cir.o)
                0x402f62ac                UARTRegConfigModeEnable
 .text.UARTDivisorLatchWrite
                0x402f62f0      0x13c ../..//bootloader/binary/drivers/Release/libdrivers.a(uart_irda_cir.o)
                0x402f62f0                UARTDivisorLatchWrite
 .text.UARTBreakCtl
                0x402f642c       0x20 ../..//bootloader/binary/drivers/Release/libdrivers.a(uart_irda_cir.o)
                0x402f642c                UARTBreakCtl
 .text.UARTLineCharacConfig
                0x402f644c       0x3c ../..//bootloader/binary/drivers/Release/libdrivers.a(uart_irda_cir.o)
                0x402f644c                UARTLineCharacConfig
 .text.UARTFIFORegisterWrite
                0x402f6488       0x88 ../..//bootloader/binary/drivers/Release/libdrivers.a(uart_irda_cir.o)
                0x402f6488                UARTFIFORegisterWrite
 .text.UARTSubConfigTCRTLRModeEn
                0x402f6510       0x74 ../..//bootloader/binary/drivers/Release/libdrivers.a(uart_irda_cir.o)
                0x402f6510                UARTSubConfigTCRTLRModeEn
 .text.UARTTCRTLRBitValRestore
                0x402f6584       0x78 ../..//bootloader/binary/drivers/Release/libdrivers.a(uart_irda_cir.o)
                0x402f6584                UARTTCRTLRBitValRestore
 .text.UARTFIFOConfig
                0x402f65fc      0x224 ../..//bootloader/binary/drivers/Release/libdrivers.a(uart_irda_cir.o)
                0x402f65fc                UARTFIFOConfig
 .text.UARTCharPut
                0x402f6820       0x30 ../..//bootloader/binary/drivers/Release/libdrivers.a(uart_irda_cir.o)
                0x402f6820                UARTCharPut
 .text.UARTModuleReset
                0x402f6850       0x20 ../..//bootloader/binary/drivers/Release/libdrivers.a(uart_irda_cir.o)
                0x402f6850                UARTModuleReset
 *(.rodata*)
 .rodata.str1.4
                0x402f6870      0x174 Release_MMCSD/bl_hsmmcsd.o
 .rodata.str1.4
                0x402f69e4       0x6b Release_MMCSD/bl_main.o
                                 0x6c (size before relaxing)
 *fill*         0x402f6a4f        0x1 00
 .rodata.str1.4
                0x402f6a50        0xf Release_MMCSD/bl_platform.o
                                 0x10 (size before relaxing)
 *fill*         0x402f6a5f        0x1 00
 .rodata.str1.4
                0x402f6a60       0x16 Release_MMCSD/fat_mmcsd.o
                                 0x18 (size before relaxing)
 *fill*         0x402f6a76        0x2 00
 .rodata.str1.4
                0x402f6a78        0xa Release_MMCSD/ff.o
                                  0xc (size before relaxing)
 *fill*         0x402f6a82        0x2 00
 .rodata.str1.4
                0x402f6a84       0x2d ../..//bootloader/binary/platform/Release/libplatform.a(board.o)
                                 0x30 (size before relaxing)
 *fill*         0x402f6ab1        0x3 00
 .rodata.str1.4
                0x402f6ab4       0x60 ../..//bootloader/binary/mmcsdlib/Release/libmmcsd.a(hs_mmcsdlib.o)

.glue_7         0x402f6b14        0x0
 .glue_7        0x00000000        0x0 linker stubs

.glue_7t        0x402f6b14        0x0
 .glue_7t       0x00000000        0x0 linker stubs

.vfp11_veneer   0x402f6b14        0x0
 .vfp11_veneer  0x00000000        0x0 linker stubs

.v4_bx          0x402f6b14        0x0
 .v4_bx         0x00000000        0x0 linker stubs

.iplt           0x402f6b14        0x0
 .iplt          0x00000000        0x0 Release_MMCSD/bl_copy.o

.rel.dyn        0x402f6b14        0x0
 .rel.iplt      0x00000000        0x0 Release_MMCSD/bl_copy.o

.data           0x402f6b14       0x58
                0x402f6b14                . = ALIGN (0x4)
 *(.data*)
 .data.deviceType
                0x402f6b14        0x4 Release_MMCSD/bl_platform.o
                0x402f6b14                deviceType
 .data.oppTable
                0x402f6b18       0x50 Release_MMCSD/bl_platform.o
                0x402f6b18                oppTable
 .data.boardId  0x402f6b68        0x4 ../..//bootloader/binary/utils/Release/libutils.a(board.o)
                0x402f6b68                boardId

.igot.plt       0x402f6b6c        0x0
 .igot.plt      0x00000000        0x0 Release_MMCSD/bl_copy.o

.bss            0x402f6b80      0x879
                0x402f6b80                . = ALIGN (0x4)
                0x402f6b80                _bss_start = .
 *(.bss*)
 .bss.g_cTmpBuf
                0x402f6b80      0x200 Release_MMCSD/bl_hsmmcsd.o
 .bss.hsmmcsd_dataLen
                0x402f6d80        0x4 Release_MMCSD/bl_hsmmcsd.o
                0x402f6d80                hsmmcsd_dataLen
 .bss.cmdTimeout
                0x402f6d84        0x4 Release_MMCSD/bl_hsmmcsd.o
                0x402f6d84                cmdTimeout
 .bss.g_sFileObject
                0x402f6d88      0x248 Release_MMCSD/bl_hsmmcsd.o
 .bss.cmdCompFlag
                0x402f6fd0        0x4 Release_MMCSD/bl_hsmmcsd.o
                0x402f6fd0                cmdCompFlag
 .bss.errFlag   0x402f6fd4        0x4 Release_MMCSD/bl_hsmmcsd.o
                0x402f6fd4                errFlag
 .bss.g_sFatFs  0x402f6fd8      0x240 Release_MMCSD/bl_hsmmcsd.o
 .bss.hsmmcsd_buffer
                0x402f7218        0x4 Release_MMCSD/bl_hsmmcsd.o
                0x402f7218                hsmmcsd_buffer
 .bss.xferPend  0x402f721c        0x4 Release_MMCSD/bl_hsmmcsd.o
                0x402f721c                xferPend
 .bss.entryPoint
                0x402f7220        0x4 Release_MMCSD/bl_main.o
                0x402f7220                entryPoint
 .bss.appEntry  0x402f7224        0x4 Release_MMCSD/bl_main.o
 .bss.isBBB     0x402f7228        0x1 Release_MMCSD/bl_platform.o
                0x402f7228                isBBB
 *fill*         0x402f7229        0x1 00
 .bss.fsid      0x402f722a        0x2 Release_MMCSD/ff.o
 .bss.FatFs     0x402f722c        0x8 Release_MMCSD/ff.o
 *fill*         0x402f7234       0x4c 00
 .bss.dataBuffer
                0x402f7280       0x80 ../..//bootloader/binary/mmcsdlib/Release/libmmcsd.a(mmcsd_proto.o)
 *(COMMON)
 COMMON         0x402f7300       0xb0 Release_MMCSD/bl_hsmmcsd.o
                0x402f7300                sdCard
                0x402f7360                ctrlInfo
 COMMON         0x402f73b0       0x20 Release_MMCSD/bl_platform.o
                0x402f73b0                dataToSlave
                0x402f73b4                rCount
                0x402f73b8                numOfBytes
                0x402f73bc                tCount
                0x402f73c0                oppMaxIdx
                0x402f73c4                deviceVersion
                0x402f73c8                dataFromSlave
                0x402f73cc                freqMultDDR
 COMMON         0x402f73d0       0x18 Release_MMCSD/fat_mmcsd.o
                0x402f73d0                fat_devices
 COMMON         0x402f73e8       0x11 ../..//bootloader/binary/utils/Release/libutils.a(board.o)
                0x402f73e8                boardName
                0x402f73f0                boardData
                0x402f73f4                boardVersion
                0x402f73f9                _bss_end = .

.heap           0x402f73f9      0x803
                0x402f73fc                . = ALIGN (0x4)
 *fill*         0x402f73f9        0x3 00
                0x402f73fc                __end__ = .
                0x402f73fc                end = __end__
                0x402f73fc                __HeapBase = __end__
 *(.heap*)
                0x402f7bfc                . = (. + 0x800)
 *fill*         0x402f73fc      0x800 00
                0x402f7bfc                __HeapLimit = .

.stack          0x402f7bfc      0x804
                0x402f7c00                . = ALIGN (0x100)
 *fill*         0x402f7bfc        0x4 00
                0x402f7c00                __StackLimit = .
 *(.stack*)
                0x402f8400                . = (. + 0x800)
 *fill*         0x402f7c00      0x800 00
                0x402f8400                __StackTop = .
                0x402f8400                _stack = __StackTop
LOAD ../..//bootloader/binary/drivers/Release/libdrivers.a
LOAD ../..//bootloader/binary/utils/Release/libutils.a
LOAD ../..//bootloader/binary/platform/Release/libplatform.a
LOAD ../..//bootloader/binary/mmcsdlib/Release/libmmcsd.a
LOAD /home/jacob/MAACS/gcc-arm-none-eabi-4_7-2012q4/arm-none-eabi/lib//libc.a
LOAD /home/jacob/MAACS/gcc-arm-none-eabi-4_7-2012q4/lib/gcc/arm-none-eabi/4.7.3//libgcc.a
LOAD ../..//bootloader/binary/drivers/Release/libdrivers.a
LOAD ../..//bootloader/binary/utils/Release/libutils.a
LOAD ../..//bootloader/binary/platform/Release/libplatform.a
LOAD ../..//bootloader/binary/mmcsdlib/Release/libmmcsd.a
LOAD /home/jacob/MAACS/gcc-arm-none-eabi-4_7-2012q4/arm-none-eabi/lib//libc.a
LOAD /home/jacob/MAACS/gcc-arm-none-eabi-4_7-2012q4/lib/gcc/arm-none-eabi/4.7.3//libgcc.a
OUTPUT(Release_MMCSD/boot.out elf32-littlearm)

.debug_info     0x00000000     0xb26c
 .debug_info    0x00000000       0x9c Release_MMCSD/bl_copy.o
 .debug_info    0x0000009c      0xcf1 Release_MMCSD/bl_hsmmcsd.o
 .debug_info    0x00000d8d       0x75 Release_MMCSD/bl_init.o
 .debug_info    0x00000e02      0x17d Release_MMCSD/bl_main.o
 .debug_info    0x00000f7f      0xa61 Release_MMCSD/bl_platform.o
 .debug_info    0x000019e0      0x277 Release_MMCSD/cache.o
 .debug_info    0x00001c57       0x6f Release_MMCSD/cp15.o
 .debug_info    0x00001cc6       0x7e Release_MMCSD/device.o
 .debug_info    0x00001d44      0x79c Release_MMCSD/fat_mmcsd.o
 .debug_info    0x000024e0     0x210b Release_MMCSD/ff.o
 .debug_info    0x000045eb      0x78f ../..//bootloader/binary/drivers/Release/libdrivers.a(gpio_v2.o)
 .debug_info    0x00004d7a      0xa41 ../..//bootloader/binary/drivers/Release/libdrivers.a(hsi2c.o)
 .debug_info    0x000057bb      0x980 ../..//bootloader/binary/drivers/Release/libdrivers.a(hs_mmcsd.o)
 .debug_info    0x0000613b      0x1e2 ../..//bootloader/binary/utils/Release/libutils.a(board.o)
 .debug_info    0x0000631d      0xfce ../..//bootloader/binary/utils/Release/libutils.a(uartStdio.o)
 .debug_info    0x000072eb      0x153 ../..//bootloader/binary/platform/Release/libplatform.a(board.o)
 .debug_info    0x0000743e      0x279 ../..//bootloader/binary/platform/Release/libplatform.a(eeprom.o)
 .debug_info    0x000076b7       0xd7 ../..//bootloader/binary/platform/Release/libplatform.a(gpio.o)
 .debug_info    0x0000778e       0x90 ../..//bootloader/binary/platform/Release/libplatform.a(hsi2c.o)
 .debug_info    0x0000781e       0x62 ../..//bootloader/binary/platform/Release/libplatform.a(hs_mmcsd.o)
 .debug_info    0x00007880      0x270 ../..//bootloader/binary/platform/Release/libplatform.a(uartConsole.o)
 .debug_info    0x00007af0       0x7b ../..//bootloader/binary/platform/Release/libplatform.a(uart.o)
 .debug_info    0x00007b6b      0x6ce ../..//bootloader/binary/mmcsdlib/Release/libmmcsd.a(hs_mmcsdlib.o)
 .debug_info    0x00008239     0x1066 ../..//bootloader/binary/mmcsdlib/Release/libmmcsd.a(mmcsd_proto.o)
 .debug_info    0x0000929f     0x1fcd ../..//bootloader/binary/drivers/Release/libdrivers.a(uart_irda_cir.o)

.debug_abbrev   0x00000000     0x2147
 .debug_abbrev  0x00000000       0x81 Release_MMCSD/bl_copy.o
 .debug_abbrev  0x00000081      0x301 Release_MMCSD/bl_hsmmcsd.o
 .debug_abbrev  0x00000382       0x14 Release_MMCSD/bl_init.o
 .debug_abbrev  0x00000396       0xc9 Release_MMCSD/bl_main.o
 .debug_abbrev  0x0000045f      0x1cd Release_MMCSD/bl_platform.o
 .debug_abbrev  0x0000062c       0x8b Release_MMCSD/cache.o
 .debug_abbrev  0x000006b7       0x14 Release_MMCSD/cp15.o
 .debug_abbrev  0x000006cb       0x66 Release_MMCSD/device.o
 .debug_abbrev  0x00000731      0x1a7 Release_MMCSD/fat_mmcsd.o
 .debug_abbrev  0x000008d8      0x3b7 Release_MMCSD/ff.o
 .debug_abbrev  0x00000c8f      0x142 ../..//bootloader/binary/drivers/Release/libdrivers.a(gpio_v2.o)
 .debug_abbrev  0x00000dd1      0x177 ../..//bootloader/binary/drivers/Release/libdrivers.a(hsi2c.o)
 .debug_abbrev  0x00000f48      0x2d7 ../..//bootloader/binary/drivers/Release/libdrivers.a(hs_mmcsd.o)
 .debug_abbrev  0x0000121f       0xec ../..//bootloader/binary/utils/Release/libutils.a(board.o)
 .debug_abbrev  0x0000130b      0x309 ../..//bootloader/binary/utils/Release/libutils.a(uartStdio.o)
 .debug_abbrev  0x00001614       0x8c ../..//bootloader/binary/platform/Release/libplatform.a(board.o)
 .debug_abbrev  0x000016a0       0xfd ../..//bootloader/binary/platform/Release/libplatform.a(eeprom.o)
 .debug_abbrev  0x0000179d       0x89 ../..//bootloader/binary/platform/Release/libplatform.a(gpio.o)
 .debug_abbrev  0x00001826       0x62 ../..//bootloader/binary/platform/Release/libplatform.a(hsi2c.o)
 .debug_abbrev  0x00001888       0x39 ../..//bootloader/binary/platform/Release/libplatform.a(hs_mmcsd.o)
 .debug_abbrev  0x000018c1      0x10e ../..//bootloader/binary/platform/Release/libplatform.a(uartConsole.o)
 .debug_abbrev  0x000019cf       0x62 ../..//bootloader/binary/platform/Release/libplatform.a(uart.o)
 .debug_abbrev  0x00001a31      0x167 ../..//bootloader/binary/mmcsdlib/Release/libmmcsd.a(hs_mmcsdlib.o)
 .debug_abbrev  0x00001b98      0x2e2 ../..//bootloader/binary/mmcsdlib/Release/libmmcsd.a(mmcsd_proto.o)
 .debug_abbrev  0x00001e7a      0x2cd ../..//bootloader/binary/drivers/Release/libdrivers.a(uart_irda_cir.o)

.debug_loc      0x00000000     0x9b00
 .debug_loc     0x00000000       0x20 Release_MMCSD/bl_copy.o
 .debug_loc     0x00000020      0x3e1 Release_MMCSD/bl_hsmmcsd.o
 .debug_loc     0x00000401       0x20 Release_MMCSD/bl_main.o
 .debug_loc     0x00000421      0xa16 Release_MMCSD/bl_platform.o
 .debug_loc     0x00000e37      0x2b0 Release_MMCSD/cache.o
 .debug_loc     0x000010e7       0x22 Release_MMCSD/device.o
 .debug_loc     0x00001109      0x2d8 Release_MMCSD/fat_mmcsd.o
 .debug_loc     0x000013e1     0x260b Release_MMCSD/ff.o
 .debug_loc     0x000039ec      0x4d1 ../..//bootloader/binary/drivers/Release/libdrivers.a(gpio_v2.o)
 .debug_loc     0x00003ebd      0x58e ../..//bootloader/binary/drivers/Release/libdrivers.a(hsi2c.o)
 .debug_loc     0x0000444b      0x7d0 ../..//bootloader/binary/drivers/Release/libdrivers.a(hs_mmcsd.o)
 .debug_loc     0x00004c1b       0x7b ../..//bootloader/binary/utils/Release/libutils.a(board.o)
 .debug_loc     0x00004c96     0x18d9 ../..//bootloader/binary/utils/Release/libutils.a(uartStdio.o)
 .debug_loc     0x0000656f       0x6a ../..//bootloader/binary/platform/Release/libplatform.a(board.o)
 .debug_loc     0x000065d9      0x13e ../..//bootloader/binary/platform/Release/libplatform.a(eeprom.o)
 .debug_loc     0x00006717       0x35 ../..//bootloader/binary/platform/Release/libplatform.a(gpio.o)
 .debug_loc     0x0000674c       0xab ../..//bootloader/binary/platform/Release/libplatform.a(uartConsole.o)
 .debug_loc     0x000067f7      0x3e0 ../..//bootloader/binary/mmcsdlib/Release/libmmcsd.a(hs_mmcsdlib.o)
 .debug_loc     0x00006bd7     0x1108 ../..//bootloader/binary/mmcsdlib/Release/libmmcsd.a(mmcsd_proto.o)
 .debug_loc     0x00007cdf     0x1e21 ../..//bootloader/binary/drivers/Release/libdrivers.a(uart_irda_cir.o)

.debug_aranges  0x00000000      0xc30
 .debug_aranges
                0x00000000       0x20 Release_MMCSD/bl_copy.o
 .debug_aranges
                0x00000020       0x50 Release_MMCSD/bl_hsmmcsd.o
 .debug_aranges
                0x00000070       0x20 Release_MMCSD/bl_init.o
 .debug_aranges
                0x00000090       0x28 Release_MMCSD/bl_main.o
 .debug_aranges
                0x000000b8       0xe8 Release_MMCSD/bl_platform.o
 .debug_aranges
                0x000001a0       0x68 Release_MMCSD/cache.o
 .debug_aranges
                0x00000208       0x20 Release_MMCSD/cp15.o
 .debug_aranges
                0x00000228       0x28 Release_MMCSD/device.o
 .debug_aranges
                0x00000250       0x48 Release_MMCSD/fat_mmcsd.o
 .debug_aranges
                0x00000298       0xf8 Release_MMCSD/ff.o
 .debug_aranges
                0x00000390      0x100 ../..//bootloader/binary/drivers/Release/libdrivers.a(gpio_v2.o)
 .debug_aranges
                0x00000490      0x180 ../..//bootloader/binary/drivers/Release/libdrivers.a(hsi2c.o)
 .debug_aranges
                0x00000610       0xf8 ../..//bootloader/binary/drivers/Release/libdrivers.a(hs_mmcsd.o)
 .debug_aranges
                0x00000708       0x38 ../..//bootloader/binary/utils/Release/libutils.a(board.o)
 .debug_aranges
                0x00000740       0x80 ../..//bootloader/binary/utils/Release/libutils.a(uartStdio.o)
 .debug_aranges
                0x000007c0       0x20 ../..//bootloader/binary/platform/Release/libplatform.a(board.o)
 .debug_aranges
                0x000007e0       0x30 ../..//bootloader/binary/platform/Release/libplatform.a(eeprom.o)
 .debug_aranges
                0x00000810       0x40 ../..//bootloader/binary/platform/Release/libplatform.a(gpio.o)
 .debug_aranges
                0x00000850       0x30 ../..//bootloader/binary/platform/Release/libplatform.a(hsi2c.o)
 .debug_aranges
                0x00000880       0x28 ../..//bootloader/binary/platform/Release/libplatform.a(hs_mmcsd.o)
 .debug_aranges
                0x000008a8       0x30 ../..//bootloader/binary/platform/Release/libplatform.a(uartConsole.o)
 .debug_aranges
                0x000008d8       0x28 ../..//bootloader/binary/platform/Release/libplatform.a(uart.o)
 .debug_aranges
                0x00000900       0x48 ../..//bootloader/binary/mmcsdlib/Release/libmmcsd.a(hs_mmcsdlib.o)
 .debug_aranges
                0x00000948       0x80 ../..//bootloader/binary/mmcsdlib/Release/libmmcsd.a(mmcsd_proto.o)
 .debug_aranges
                0x000009c8      0x268 ../..//bootloader/binary/drivers/Release/libdrivers.a(uart_irda_cir.o)

.debug_ranges   0x00000000     0x16a8
 .debug_ranges  0x00000000       0x10 Release_MMCSD/bl_copy.o
 .debug_ranges  0x00000010       0x58 Release_MMCSD/bl_hsmmcsd.o
 .debug_ranges  0x00000068       0x18 Release_MMCSD/bl_main.o
 .debug_ranges  0x00000080      0x138 Release_MMCSD/bl_platform.o
 .debug_ranges  0x000001b8       0x58 Release_MMCSD/cache.o
 .debug_ranges  0x00000210       0x18 Release_MMCSD/device.o
 .debug_ranges  0x00000228       0x50 Release_MMCSD/fat_mmcsd.o
 .debug_ranges  0x00000278      0x2e0 Release_MMCSD/ff.o
 .debug_ranges  0x00000558       0xf0 ../..//bootloader/binary/drivers/Release/libdrivers.a(gpio_v2.o)
 .debug_ranges  0x00000648      0x170 ../..//bootloader/binary/drivers/Release/libdrivers.a(hsi2c.o)
 .debug_ranges  0x000007b8      0x160 ../..//bootloader/binary/drivers/Release/libdrivers.a(hs_mmcsd.o)
 .debug_ranges  0x00000918       0x28 ../..//bootloader/binary/utils/Release/libutils.a(board.o)
 .debug_ranges  0x00000940      0x330 ../..//bootloader/binary/utils/Release/libutils.a(uartStdio.o)
 .debug_ranges  0x00000c70       0x10 ../..//bootloader/binary/platform/Release/libplatform.a(board.o)
 .debug_ranges  0x00000c80       0x58 ../..//bootloader/binary/platform/Release/libplatform.a(eeprom.o)
 .debug_ranges  0x00000cd8       0x30 ../..//bootloader/binary/platform/Release/libplatform.a(gpio.o)
 .debug_ranges  0x00000d08       0x20 ../..//bootloader/binary/platform/Release/libplatform.a(hsi2c.o)
 .debug_ranges  0x00000d28       0x18 ../..//bootloader/binary/platform/Release/libplatform.a(hs_mmcsd.o)
 .debug_ranges  0x00000d40       0x60 ../..//bootloader/binary/platform/Release/libplatform.a(uartConsole.o)
 .debug_ranges  0x00000da0       0x18 ../..//bootloader/binary/platform/Release/libplatform.a(uart.o)
 .debug_ranges  0x00000db8       0x38 ../..//bootloader/binary/mmcsdlib/Release/libmmcsd.a(hs_mmcsdlib.o)
 .debug_ranges  0x00000df0      0x2f0 ../..//bootloader/binary/mmcsdlib/Release/libmmcsd.a(mmcsd_proto.o)
 .debug_ranges  0x000010e0      0x5c8 ../..//bootloader/binary/drivers/Release/libdrivers.a(uart_irda_cir.o)

.debug_line     0x00000000     0x4070
 .debug_line    0x00000000       0x54 Release_MMCSD/bl_copy.o
 .debug_line    0x00000054      0x2f9 Release_MMCSD/bl_hsmmcsd.o
 .debug_line    0x0000034d       0x7f Release_MMCSD/bl_init.o
 .debug_line    0x000003cc       0x6d Release_MMCSD/bl_main.o
 .debug_line    0x00000439      0x5c3 Release_MMCSD/bl_platform.o
 .debug_line    0x000009fc      0x105 Release_MMCSD/cache.o
 .debug_line    0x00000b01      0x17e Release_MMCSD/cp15.o
 .debug_line    0x00000c7f       0x6b Release_MMCSD/device.o
 .debug_line    0x00000cea      0x153 Release_MMCSD/fat_mmcsd.o
 .debug_line    0x00000e3d      0x99f Release_MMCSD/ff.o
 .debug_line    0x000017dc      0x2de ../..//bootloader/binary/drivers/Release/libdrivers.a(gpio_v2.o)
 .debug_line    0x00001aba      0x3d7 ../..//bootloader/binary/drivers/Release/libdrivers.a(hsi2c.o)
 .debug_line    0x00001e91      0x33f ../..//bootloader/binary/drivers/Release/libdrivers.a(hs_mmcsd.o)
 .debug_line    0x000021d0       0xd7 ../..//bootloader/binary/utils/Release/libutils.a(board.o)
 .debug_line    0x000022a7      0x862 ../..//bootloader/binary/utils/Release/libutils.a(uartStdio.o)
 .debug_line    0x00002b09       0x7a ../..//bootloader/binary/platform/Release/libplatform.a(board.o)
 .debug_line    0x00002b83       0xe7 ../..//bootloader/binary/platform/Release/libplatform.a(eeprom.o)
 .debug_line    0x00002c6a       0xfc ../..//bootloader/binary/platform/Release/libplatform.a(gpio.o)
 .debug_line    0x00002d66      0x173 ../..//bootloader/binary/platform/Release/libplatform.a(hsi2c.o)
 .debug_line    0x00002ed9       0x83 ../..//bootloader/binary/platform/Release/libplatform.a(hs_mmcsd.o)
 .debug_line    0x00002f5c       0xb4 ../..//bootloader/binary/platform/Release/libplatform.a(uartConsole.o)
 .debug_line    0x00003010      0x116 ../..//bootloader/binary/platform/Release/libplatform.a(uart.o)
 .debug_line    0x00003126      0x143 ../..//bootloader/binary/mmcsdlib/Release/libmmcsd.a(hs_mmcsdlib.o)
 .debug_line    0x00003269      0x469 ../..//bootloader/binary/mmcsdlib/Release/libmmcsd.a(mmcsd_proto.o)
 .debug_line    0x000036d2      0x99e ../..//bootloader/binary/drivers/Release/libdrivers.a(uart_irda_cir.o)

.debug_str      0x00000000     0x2902
 .debug_str     0x00000000       0xb8 Release_MMCSD/bl_copy.o
                                 0xcf (size before relaxing)
 .debug_str     0x000000b8      0x537 Release_MMCSD/bl_hsmmcsd.o
                                0x645 (size before relaxing)
 .debug_str     0x000005ef       0x4b Release_MMCSD/bl_main.o
                                 0xe2 (size before relaxing)
 .debug_str     0x0000063a      0x305 Release_MMCSD/bl_platform.o
                                0x422 (size before relaxing)
 .debug_str     0x0000093f      0x118 Release_MMCSD/cache.o
                                0x191 (size before relaxing)
 .debug_str     0x00000a57       0x4e Release_MMCSD/device.o
                                 0xe3 (size before relaxing)
 .debug_str     0x00000aa5       0xd1 Release_MMCSD/fat_mmcsd.o
                                0x3be (size before relaxing)
 .debug_str     0x00000b76      0x297 Release_MMCSD/ff.o
                                0x5df (size before relaxing)
 .debug_str     0x00000e0d      0x339 ../..//bootloader/binary/drivers/Release/libdrivers.a(gpio_v2.o)
                                0x3ae (size before relaxing)
 .debug_str     0x00001146      0x429 ../..//bootloader/binary/drivers/Release/libdrivers.a(hsi2c.o)
                                0x4ea (size before relaxing)
 .debug_str     0x0000156f      0x300 ../..//bootloader/binary/drivers/Release/libdrivers.a(hs_mmcsd.o)
                                0x3c1 (size before relaxing)
 .debug_str     0x0000186f       0xd5 ../..//bootloader/binary/utils/Release/libutils.a(board.o)
                                0x159 (size before relaxing)
 .debug_str     0x00001944      0x1d6 ../..//bootloader/binary/utils/Release/libutils.a(uartStdio.o)
                                0x295 (size before relaxing)
 .debug_str     0x00001b1a       0x75 ../..//bootloader/binary/platform/Release/libplatform.a(board.o)
                                0x158 (size before relaxing)
 .debug_str     0x00001b8f       0x80 ../..//bootloader/binary/platform/Release/libplatform.a(eeprom.o)
                                0x13d (size before relaxing)
 .debug_str     0x00001c0f       0xaf ../..//bootloader/binary/platform/Release/libplatform.a(gpio.o)
                                0x148 (size before relaxing)
 .debug_str     0x00001cbe       0x71 ../..//bootloader/binary/platform/Release/libplatform.a(hsi2c.o)
                                0x10a (size before relaxing)
 .debug_str     0x00001d2f       0x5e ../..//bootloader/binary/platform/Release/libplatform.a(hs_mmcsd.o)
                                 0xee (size before relaxing)
 .debug_str     0x00001d8d       0xd6 ../..//bootloader/binary/platform/Release/libplatform.a(uartConsole.o)
                                0x174 (size before relaxing)
 .debug_str     0x00001e63       0x61 ../..//bootloader/binary/platform/Release/libplatform.a(uart.o)
                                 0xfa (size before relaxing)
 .debug_str     0x00001ec4       0xf7 ../..//bootloader/binary/mmcsdlib/Release/libmmcsd.a(hs_mmcsdlib.o)
                                0x343 (size before relaxing)
 .debug_str     0x00001fbb       0xe8 ../..//bootloader/binary/mmcsdlib/Release/libmmcsd.a(mmcsd_proto.o)
                                0x3aa (size before relaxing)
 .debug_str     0x000020a3      0x85f ../..//bootloader/binary/drivers/Release/libdrivers.a(uart_irda_cir.o)
                                0x94e (size before relaxing)

.comment        0x00000000       0x70
 .comment       0x00000000       0x70 Release_MMCSD/bl_copy.o
                                 0x71 (size before relaxing)
 .comment       0x00000000       0x71 Release_MMCSD/bl_hsmmcsd.o
 .comment       0x00000000       0x71 Release_MMCSD/bl_main.o
 .comment       0x00000000       0x71 Release_MMCSD/bl_platform.o
 .comment       0x00000000       0x71 Release_MMCSD/cache.o
 .comment       0x00000000       0x71 Release_MMCSD/device.o
 .comment       0x00000000       0x71 Release_MMCSD/fat_mmcsd.o
 .comment       0x00000000       0x71 Release_MMCSD/ff.o
 .comment       0x00000000       0x71 ../..//bootloader/binary/drivers/Release/libdrivers.a(gpio_v2.o)
 .comment       0x00000000       0x71 ../..//bootloader/binary/drivers/Release/libdrivers.a(hsi2c.o)
 .comment       0x00000000       0x71 ../..//bootloader/binary/drivers/Release/libdrivers.a(hs_mmcsd.o)
 .comment       0x00000000       0x71 ../..//bootloader/binary/utils/Release/libutils.a(board.o)
 .comment       0x00000000       0x71 ../..//bootloader/binary/utils/Release/libutils.a(uartStdio.o)
 .comment       0x00000000       0x71 ../..//bootloader/binary/platform/Release/libplatform.a(board.o)
 .comment       0x00000000       0x71 ../..//bootloader/binary/platform/Release/libplatform.a(eeprom.o)
 .comment       0x00000000       0x71 ../..//bootloader/binary/platform/Release/libplatform.a(gpio.o)
 .comment       0x00000000       0x71 ../..//bootloader/binary/platform/Release/libplatform.a(hsi2c.o)
 .comment       0x00000000       0x71 ../..//bootloader/binary/platform/Release/libplatform.a(hs_mmcsd.o)
 .comment       0x00000000       0x71 ../..//bootloader/binary/platform/Release/libplatform.a(uartConsole.o)
 .comment       0x00000000       0x71 ../..//bootloader/binary/platform/Release/libplatform.a(uart.o)
 .comment       0x00000000       0x71 ../..//bootloader/binary/mmcsdlib/Release/libmmcsd.a(hs_mmcsdlib.o)
 .comment       0x00000000       0x71 ../..//bootloader/binary/mmcsdlib/Release/libmmcsd.a(mmcsd_proto.o)
 .comment       0x00000000       0x71 ../..//bootloader/binary/drivers/Release/libdrivers.a(uart_irda_cir.o)

.ARM.attributes
                0x00000000       0x35
 .ARM.attributes
                0x00000000       0x37 Release_MMCSD/bl_copy.o
 .ARM.attributes
                0x00000037       0x37 Release_MMCSD/bl_hsmmcsd.o
 .ARM.attributes
                0x0000006e       0x1f Release_MMCSD/bl_init.o
 .ARM.attributes
                0x0000008d       0x37 Release_MMCSD/bl_main.o
 .ARM.attributes
                0x000000c4       0x37 Release_MMCSD/bl_platform.o
 .ARM.attributes
                0x000000fb       0x37 Release_MMCSD/cache.o
 .ARM.attributes
                0x00000132       0x1f Release_MMCSD/cp15.o
 .ARM.attributes
                0x00000151       0x37 Release_MMCSD/device.o
 .ARM.attributes
                0x00000188       0x37 Release_MMCSD/fat_mmcsd.o
 .ARM.attributes
                0x000001bf       0x37 Release_MMCSD/ff.o
 .ARM.attributes
                0x000001f6       0x37 ../..//bootloader/binary/drivers/Release/libdrivers.a(gpio_v2.o)
 .ARM.attributes
                0x0000022d       0x37 ../..//bootloader/binary/drivers/Release/libdrivers.a(hsi2c.o)
 .ARM.attributes
                0x00000264       0x37 ../..//bootloader/binary/drivers/Release/libdrivers.a(hs_mmcsd.o)
 .ARM.attributes
                0x0000029b       0x37 ../..//bootloader/binary/utils/Release/libutils.a(board.o)
 .ARM.attributes
                0x000002d2       0x37 ../..//bootloader/binary/utils/Release/libutils.a(uartStdio.o)
 .ARM.attributes
                0x00000309       0x37 ../..//bootloader/binary/platform/Release/libplatform.a(board.o)
 .ARM.attributes
                0x00000340       0x37 ../..//bootloader/binary/platform/Release/libplatform.a(eeprom.o)
 .ARM.attributes
                0x00000377       0x37 ../..//bootloader/binary/platform/Release/libplatform.a(gpio.o)
 .ARM.attributes
                0x000003ae       0x37 ../..//bootloader/binary/platform/Release/libplatform.a(hsi2c.o)
 .ARM.attributes
                0x000003e5       0x37 ../..//bootloader/binary/platform/Release/libplatform.a(hs_mmcsd.o)
 .ARM.attributes
                0x0000041c       0x37 ../..//bootloader/binary/platform/Release/libplatform.a(uartConsole.o)
 .ARM.attributes
                0x00000453       0x37 ../..//bootloader/binary/platform/Release/libplatform.a(uart.o)
 .ARM.attributes
                0x0000048a       0x37 ../..//bootloader/binary/mmcsdlib/Release/libmmcsd.a(hs_mmcsdlib.o)
 .ARM.attributes
                0x000004c1       0x37 ../..//bootloader/binary/mmcsdlib/Release/libmmcsd.a(mmcsd_proto.o)
 .ARM.attributes
                0x000004f8       0x30 /home/jacob/MAACS/gcc-arm-none-eabi-4_7-2012q4/arm-none-eabi/lib//libc.a(lib_a-memcmp.o)
 .ARM.attributes
                0x00000528       0x30 /home/jacob/MAACS/gcc-arm-none-eabi-4_7-2012q4/arm-none-eabi/lib//libc.a(lib_a-memcpy.o)
 .ARM.attributes
                0x00000558       0x30 /home/jacob/MAACS/gcc-arm-none-eabi-4_7-2012q4/arm-none-eabi/lib//libc.a(lib_a-memset.o)
 .ARM.attributes
                0x00000588       0x30 /home/jacob/MAACS/gcc-arm-none-eabi-4_7-2012q4/arm-none-eabi/lib//libc.a(lib_a-strcmp.o)
 .ARM.attributes
                0x000005b8       0x18 /home/jacob/MAACS/gcc-arm-none-eabi-4_7-2012q4/lib/gcc/arm-none-eabi/4.7.3//libgcc.a(_udivsi3.o)
 .ARM.attributes
                0x000005d0       0x18 /home/jacob/MAACS/gcc-arm-none-eabi-4_7-2012q4/lib/gcc/arm-none-eabi/4.7.3//libgcc.a(_divsi3.o)
 .ARM.attributes
                0x000005e8       0x18 /home/jacob/MAACS/gcc-arm-none-eabi-4_7-2012q4/lib/gcc/arm-none-eabi/4.7.3//libgcc.a(_dvmd_tls.o)
 .ARM.attributes
                0x00000600       0x37 ../..//bootloader/binary/drivers/Release/libdrivers.a(uart_irda_cir.o)

.debug_frame    0x00000000     0x1c7c
 .debug_frame   0x00000000       0x28 Release_MMCSD/bl_copy.o
 .debug_frame   0x00000028       0xec Release_MMCSD/bl_hsmmcsd.o
 .debug_frame   0x00000114       0x38 Release_MMCSD/bl_main.o
 .debug_frame   0x0000014c      0x294 Release_MMCSD/bl_platform.o
 .debug_frame   0x000003e0      0x100 Release_MMCSD/cache.o
 .debug_frame   0x000004e0       0x30 Release_MMCSD/device.o
 .debug_frame   0x00000510       0x8c Release_MMCSD/fat_mmcsd.o
 .debug_frame   0x0000059c      0x3a0 Release_MMCSD/ff.o
 .debug_frame   0x0000093c      0x1e0 ../..//bootloader/binary/drivers/Release/libdrivers.a(gpio_v2.o)
 .debug_frame   0x00000b1c      0x2f0 ../..//bootloader/binary/drivers/Release/libdrivers.a(hsi2c.o)
 .debug_frame   0x00000e0c      0x204 ../..//bootloader/binary/drivers/Release/libdrivers.a(hs_mmcsd.o)
 .debug_frame   0x00001010       0x60 ../..//bootloader/binary/utils/Release/libutils.a(board.o)
 .debug_frame   0x00001070      0x1cc ../..//bootloader/binary/utils/Release/libutils.a(uartStdio.o)
 .debug_frame   0x0000123c       0x2c ../..//bootloader/binary/platform/Release/libplatform.a(board.o)
 .debug_frame   0x00001268       0x68 ../..//bootloader/binary/platform/Release/libplatform.a(eeprom.o)
 .debug_frame   0x000012d0       0x60 ../..//bootloader/binary/platform/Release/libplatform.a(gpio.o)
 .debug_frame   0x00001330       0x40 ../..//bootloader/binary/platform/Release/libplatform.a(hsi2c.o)
 .debug_frame   0x00001370       0x30 ../..//bootloader/binary/platform/Release/libplatform.a(hs_mmcsd.o)
 .debug_frame   0x000013a0       0x58 ../..//bootloader/binary/platform/Release/libplatform.a(uartConsole.o)
 .debug_frame   0x000013f8       0x30 ../..//bootloader/binary/platform/Release/libplatform.a(uart.o)
 .debug_frame   0x00001428       0xb0 ../..//bootloader/binary/mmcsdlib/Release/libmmcsd.a(hs_mmcsdlib.o)
 .debug_frame   0x000014d8      0x17c ../..//bootloader/binary/mmcsdlib/Release/libmmcsd.a(mmcsd_proto.o)
 .debug_frame   0x00001654       0x28 /home/jacob/MAACS/gcc-arm-none-eabi-4_7-2012q4/arm-none-eabi/lib//libc.a(lib_a-memcmp.o)
 .debug_frame   0x0000167c       0x2c /home/jacob/MAACS/gcc-arm-none-eabi-4_7-2012q4/arm-none-eabi/lib//libc.a(lib_a-memcpy.o)
 .debug_frame   0x000016a8       0x28 /home/jacob/MAACS/gcc-arm-none-eabi-4_7-2012q4/arm-none-eabi/lib//libc.a(lib_a-memset.o)
 .debug_frame   0x000016d0       0x30 /home/jacob/MAACS/gcc-arm-none-eabi-4_7-2012q4/arm-none-eabi/lib//libc.a(lib_a-strcmp.o)
 .debug_frame   0x00001700       0x20 /home/jacob/MAACS/gcc-arm-none-eabi-4_7-2012q4/lib/gcc/arm-none-eabi/4.7.3//libgcc.a(_udivsi3.o)
 .debug_frame   0x00001720       0x20 /home/jacob/MAACS/gcc-arm-none-eabi-4_7-2012q4/lib/gcc/arm-none-eabi/4.7.3//libgcc.a(_divsi3.o)
 .debug_frame   0x00001740      0x53c ../..//bootloader/binary/drivers/Release/libdrivers.a(uart_irda_cir.o)
